
kernel/kernel:     file format elf64-littleriscv


Disassembly of section .text:

0000000080000000 <_entry>:
    80000000:	0000c117          	auipc	sp,0xc
    80000004:	8d010113          	addi	sp,sp,-1840 # 8000b8d0 <stack0>
    80000008:	6505                	lui	a0,0x1
    8000000a:	f14025f3          	csrr	a1,mhartid
    8000000e:	0585                	addi	a1,a1,1
    80000010:	02b50533          	mul	a0,a0,a1
    80000014:	912a                	add	sp,sp,a0
    80000016:	1e4000ef          	jal	800001fa <start>

000000008000001a <spin>:
    8000001a:	a001                	j	8000001a <spin>

000000008000001c <r_mhartid>:
#ifndef __ASSEMBLER__

// which hart (core) is this?
static inline uint64
r_mhartid()
{
    8000001c:	1101                	addi	sp,sp,-32
    8000001e:	ec06                	sd	ra,24(sp)
    80000020:	e822                	sd	s0,16(sp)
    80000022:	1000                	addi	s0,sp,32
  uint64 x;
  asm volatile("csrr %0, mhartid" : "=r" (x) );
    80000024:	f14027f3          	csrr	a5,mhartid
    80000028:	fef43423          	sd	a5,-24(s0)
  return x;
    8000002c:	fe843783          	ld	a5,-24(s0)
}
    80000030:	853e                	mv	a0,a5
    80000032:	60e2                	ld	ra,24(sp)
    80000034:	6442                	ld	s0,16(sp)
    80000036:	6105                	addi	sp,sp,32
    80000038:	8082                	ret

000000008000003a <r_mstatus>:
#define MSTATUS_MPP_U (0L << 11)
#define MSTATUS_MIE (1L << 3)    // machine-mode interrupt enable.

static inline uint64
r_mstatus()
{
    8000003a:	1101                	addi	sp,sp,-32
    8000003c:	ec06                	sd	ra,24(sp)
    8000003e:	e822                	sd	s0,16(sp)
    80000040:	1000                	addi	s0,sp,32
  uint64 x;
  asm volatile("csrr %0, mstatus" : "=r" (x) );
    80000042:	300027f3          	csrr	a5,mstatus
    80000046:	fef43423          	sd	a5,-24(s0)
  return x;
    8000004a:	fe843783          	ld	a5,-24(s0)
}
    8000004e:	853e                	mv	a0,a5
    80000050:	60e2                	ld	ra,24(sp)
    80000052:	6442                	ld	s0,16(sp)
    80000054:	6105                	addi	sp,sp,32
    80000056:	8082                	ret

0000000080000058 <w_mstatus>:

static inline void 
w_mstatus(uint64 x)
{
    80000058:	1101                	addi	sp,sp,-32
    8000005a:	ec06                	sd	ra,24(sp)
    8000005c:	e822                	sd	s0,16(sp)
    8000005e:	1000                	addi	s0,sp,32
    80000060:	fea43423          	sd	a0,-24(s0)
  asm volatile("csrw mstatus, %0" : : "r" (x));
    80000064:	fe843783          	ld	a5,-24(s0)
    80000068:	30079073          	csrw	mstatus,a5
}
    8000006c:	0001                	nop
    8000006e:	60e2                	ld	ra,24(sp)
    80000070:	6442                	ld	s0,16(sp)
    80000072:	6105                	addi	sp,sp,32
    80000074:	8082                	ret

0000000080000076 <w_mepc>:
// machine exception program counter, holds the
// instruction address to which a return from
// exception will go.
static inline void 
w_mepc(uint64 x)
{
    80000076:	1101                	addi	sp,sp,-32
    80000078:	ec06                	sd	ra,24(sp)
    8000007a:	e822                	sd	s0,16(sp)
    8000007c:	1000                	addi	s0,sp,32
    8000007e:	fea43423          	sd	a0,-24(s0)
  asm volatile("csrw mepc, %0" : : "r" (x));
    80000082:	fe843783          	ld	a5,-24(s0)
    80000086:	34179073          	csrw	mepc,a5
}
    8000008a:	0001                	nop
    8000008c:	60e2                	ld	ra,24(sp)
    8000008e:	6442                	ld	s0,16(sp)
    80000090:	6105                	addi	sp,sp,32
    80000092:	8082                	ret

0000000080000094 <r_sie>:
#define SIE_SEIE (1L << 9) // external
#define SIE_STIE (1L << 5) // timer
#define SIE_SSIE (1L << 1) // software
static inline uint64
r_sie()
{
    80000094:	1101                	addi	sp,sp,-32
    80000096:	ec06                	sd	ra,24(sp)
    80000098:	e822                	sd	s0,16(sp)
    8000009a:	1000                	addi	s0,sp,32
  uint64 x;
  asm volatile("csrr %0, sie" : "=r" (x) );
    8000009c:	104027f3          	csrr	a5,sie
    800000a0:	fef43423          	sd	a5,-24(s0)
  return x;
    800000a4:	fe843783          	ld	a5,-24(s0)
}
    800000a8:	853e                	mv	a0,a5
    800000aa:	60e2                	ld	ra,24(sp)
    800000ac:	6442                	ld	s0,16(sp)
    800000ae:	6105                	addi	sp,sp,32
    800000b0:	8082                	ret

00000000800000b2 <w_sie>:

static inline void 
w_sie(uint64 x)
{
    800000b2:	1101                	addi	sp,sp,-32
    800000b4:	ec06                	sd	ra,24(sp)
    800000b6:	e822                	sd	s0,16(sp)
    800000b8:	1000                	addi	s0,sp,32
    800000ba:	fea43423          	sd	a0,-24(s0)
  asm volatile("csrw sie, %0" : : "r" (x));
    800000be:	fe843783          	ld	a5,-24(s0)
    800000c2:	10479073          	csrw	sie,a5
}
    800000c6:	0001                	nop
    800000c8:	60e2                	ld	ra,24(sp)
    800000ca:	6442                	ld	s0,16(sp)
    800000cc:	6105                	addi	sp,sp,32
    800000ce:	8082                	ret

00000000800000d0 <r_mie>:
#define MIE_MEIE (1L << 11) // external
#define MIE_MTIE (1L << 7)  // timer
#define MIE_MSIE (1L << 3)  // software
static inline uint64
r_mie()
{
    800000d0:	1101                	addi	sp,sp,-32
    800000d2:	ec06                	sd	ra,24(sp)
    800000d4:	e822                	sd	s0,16(sp)
    800000d6:	1000                	addi	s0,sp,32
  uint64 x;
  asm volatile("csrr %0, mie" : "=r" (x) );
    800000d8:	304027f3          	csrr	a5,mie
    800000dc:	fef43423          	sd	a5,-24(s0)
  return x;
    800000e0:	fe843783          	ld	a5,-24(s0)
}
    800000e4:	853e                	mv	a0,a5
    800000e6:	60e2                	ld	ra,24(sp)
    800000e8:	6442                	ld	s0,16(sp)
    800000ea:	6105                	addi	sp,sp,32
    800000ec:	8082                	ret

00000000800000ee <w_mie>:

static inline void 
w_mie(uint64 x)
{
    800000ee:	1101                	addi	sp,sp,-32
    800000f0:	ec06                	sd	ra,24(sp)
    800000f2:	e822                	sd	s0,16(sp)
    800000f4:	1000                	addi	s0,sp,32
    800000f6:	fea43423          	sd	a0,-24(s0)
  asm volatile("csrw mie, %0" : : "r" (x));
    800000fa:	fe843783          	ld	a5,-24(s0)
    800000fe:	30479073          	csrw	mie,a5
}
    80000102:	0001                	nop
    80000104:	60e2                	ld	ra,24(sp)
    80000106:	6442                	ld	s0,16(sp)
    80000108:	6105                	addi	sp,sp,32
    8000010a:	8082                	ret

000000008000010c <w_medeleg>:
  return x;
}

static inline void 
w_medeleg(uint64 x)
{
    8000010c:	1101                	addi	sp,sp,-32
    8000010e:	ec06                	sd	ra,24(sp)
    80000110:	e822                	sd	s0,16(sp)
    80000112:	1000                	addi	s0,sp,32
    80000114:	fea43423          	sd	a0,-24(s0)
  asm volatile("csrw medeleg, %0" : : "r" (x));
    80000118:	fe843783          	ld	a5,-24(s0)
    8000011c:	30279073          	csrw	medeleg,a5
}
    80000120:	0001                	nop
    80000122:	60e2                	ld	ra,24(sp)
    80000124:	6442                	ld	s0,16(sp)
    80000126:	6105                	addi	sp,sp,32
    80000128:	8082                	ret

000000008000012a <w_mideleg>:
  return x;
}

static inline void 
w_mideleg(uint64 x)
{
    8000012a:	1101                	addi	sp,sp,-32
    8000012c:	ec06                	sd	ra,24(sp)
    8000012e:	e822                	sd	s0,16(sp)
    80000130:	1000                	addi	s0,sp,32
    80000132:	fea43423          	sd	a0,-24(s0)
  asm volatile("csrw mideleg, %0" : : "r" (x));
    80000136:	fe843783          	ld	a5,-24(s0)
    8000013a:	30379073          	csrw	mideleg,a5
}
    8000013e:	0001                	nop
    80000140:	60e2                	ld	ra,24(sp)
    80000142:	6442                	ld	s0,16(sp)
    80000144:	6105                	addi	sp,sp,32
    80000146:	8082                	ret

0000000080000148 <w_mtvec>:
}

// Machine-mode interrupt vector
static inline void 
w_mtvec(uint64 x)
{
    80000148:	1101                	addi	sp,sp,-32
    8000014a:	ec06                	sd	ra,24(sp)
    8000014c:	e822                	sd	s0,16(sp)
    8000014e:	1000                	addi	s0,sp,32
    80000150:	fea43423          	sd	a0,-24(s0)
  asm volatile("csrw mtvec, %0" : : "r" (x));
    80000154:	fe843783          	ld	a5,-24(s0)
    80000158:	30579073          	csrw	mtvec,a5
}
    8000015c:	0001                	nop
    8000015e:	60e2                	ld	ra,24(sp)
    80000160:	6442                	ld	s0,16(sp)
    80000162:	6105                	addi	sp,sp,32
    80000164:	8082                	ret

0000000080000166 <w_pmpcfg0>:

// Physical Memory Protection
static inline void
w_pmpcfg0(uint64 x)
{
    80000166:	1101                	addi	sp,sp,-32
    80000168:	ec06                	sd	ra,24(sp)
    8000016a:	e822                	sd	s0,16(sp)
    8000016c:	1000                	addi	s0,sp,32
    8000016e:	fea43423          	sd	a0,-24(s0)
  asm volatile("csrw pmpcfg0, %0" : : "r" (x));
    80000172:	fe843783          	ld	a5,-24(s0)
    80000176:	3a079073          	csrw	pmpcfg0,a5
}
    8000017a:	0001                	nop
    8000017c:	60e2                	ld	ra,24(sp)
    8000017e:	6442                	ld	s0,16(sp)
    80000180:	6105                	addi	sp,sp,32
    80000182:	8082                	ret

0000000080000184 <w_pmpaddr0>:

static inline void
w_pmpaddr0(uint64 x)
{
    80000184:	1101                	addi	sp,sp,-32
    80000186:	ec06                	sd	ra,24(sp)
    80000188:	e822                	sd	s0,16(sp)
    8000018a:	1000                	addi	s0,sp,32
    8000018c:	fea43423          	sd	a0,-24(s0)
  asm volatile("csrw pmpaddr0, %0" : : "r" (x));
    80000190:	fe843783          	ld	a5,-24(s0)
    80000194:	3b079073          	csrw	pmpaddr0,a5
}
    80000198:	0001                	nop
    8000019a:	60e2                	ld	ra,24(sp)
    8000019c:	6442                	ld	s0,16(sp)
    8000019e:	6105                	addi	sp,sp,32
    800001a0:	8082                	ret

00000000800001a2 <w_satp>:

// supervisor address translation and protection;
// holds the address of the page table.
static inline void 
w_satp(uint64 x)
{
    800001a2:	1101                	addi	sp,sp,-32
    800001a4:	ec06                	sd	ra,24(sp)
    800001a6:	e822                	sd	s0,16(sp)
    800001a8:	1000                	addi	s0,sp,32
    800001aa:	fea43423          	sd	a0,-24(s0)
  asm volatile("csrw satp, %0" : : "r" (x));
    800001ae:	fe843783          	ld	a5,-24(s0)
    800001b2:	18079073          	csrw	satp,a5
}
    800001b6:	0001                	nop
    800001b8:	60e2                	ld	ra,24(sp)
    800001ba:	6442                	ld	s0,16(sp)
    800001bc:	6105                	addi	sp,sp,32
    800001be:	8082                	ret

00000000800001c0 <w_mscratch>:
  return x;
}

static inline void 
w_mscratch(uint64 x)
{
    800001c0:	1101                	addi	sp,sp,-32
    800001c2:	ec06                	sd	ra,24(sp)
    800001c4:	e822                	sd	s0,16(sp)
    800001c6:	1000                	addi	s0,sp,32
    800001c8:	fea43423          	sd	a0,-24(s0)
  asm volatile("csrw mscratch, %0" : : "r" (x));
    800001cc:	fe843783          	ld	a5,-24(s0)
    800001d0:	34079073          	csrw	mscratch,a5
}
    800001d4:	0001                	nop
    800001d6:	60e2                	ld	ra,24(sp)
    800001d8:	6442                	ld	s0,16(sp)
    800001da:	6105                	addi	sp,sp,32
    800001dc:	8082                	ret

00000000800001de <w_tp>:
  return x;
}

static inline void 
w_tp(uint64 x)
{
    800001de:	1101                	addi	sp,sp,-32
    800001e0:	ec06                	sd	ra,24(sp)
    800001e2:	e822                	sd	s0,16(sp)
    800001e4:	1000                	addi	s0,sp,32
    800001e6:	fea43423          	sd	a0,-24(s0)
  asm volatile("mv tp, %0" : : "r" (x));
    800001ea:	fe843783          	ld	a5,-24(s0)
    800001ee:	823e                	mv	tp,a5
}
    800001f0:	0001                	nop
    800001f2:	60e2                	ld	ra,24(sp)
    800001f4:	6442                	ld	s0,16(sp)
    800001f6:	6105                	addi	sp,sp,32
    800001f8:	8082                	ret

00000000800001fa <start>:
extern void timervec();

// entry.S jumps here in machine mode on stack0.
void
start()
{
    800001fa:	1101                	addi	sp,sp,-32
    800001fc:	ec06                	sd	ra,24(sp)
    800001fe:	e822                	sd	s0,16(sp)
    80000200:	1000                	addi	s0,sp,32
  // set M Previous Privilege mode to Supervisor, for mret.
  unsigned long x = r_mstatus();
    80000202:	00000097          	auipc	ra,0x0
    80000206:	e38080e7          	jalr	-456(ra) # 8000003a <r_mstatus>
    8000020a:	fea43423          	sd	a0,-24(s0)
  x &= ~MSTATUS_MPP_MASK;
    8000020e:	fe843703          	ld	a4,-24(s0)
    80000212:	77f9                	lui	a5,0xffffe
    80000214:	7ff78793          	addi	a5,a5,2047 # ffffffffffffe7ff <end+0xffffffff7ffd9ab7>
    80000218:	8ff9                	and	a5,a5,a4
    8000021a:	fef43423          	sd	a5,-24(s0)
  x |= MSTATUS_MPP_S;
    8000021e:	fe843703          	ld	a4,-24(s0)
    80000222:	6785                	lui	a5,0x1
    80000224:	80078793          	addi	a5,a5,-2048 # 800 <_entry-0x7ffff800>
    80000228:	8fd9                	or	a5,a5,a4
    8000022a:	fef43423          	sd	a5,-24(s0)
  w_mstatus(x);
    8000022e:	fe843503          	ld	a0,-24(s0)
    80000232:	00000097          	auipc	ra,0x0
    80000236:	e26080e7          	jalr	-474(ra) # 80000058 <w_mstatus>

  // set M Exception Program Counter to main, for mret.
  // requires gcc -mcmodel=medany
  w_mepc((uint64)main);
    8000023a:	00001797          	auipc	a5,0x1
    8000023e:	63078793          	addi	a5,a5,1584 # 8000186a <main>
    80000242:	853e                	mv	a0,a5
    80000244:	00000097          	auipc	ra,0x0
    80000248:	e32080e7          	jalr	-462(ra) # 80000076 <w_mepc>

  // disable paging for now.
  w_satp(0);
    8000024c:	4501                	li	a0,0
    8000024e:	00000097          	auipc	ra,0x0
    80000252:	f54080e7          	jalr	-172(ra) # 800001a2 <w_satp>

  // delegate all interrupts and exceptions to supervisor mode.
  w_medeleg(0xffff);
    80000256:	67c1                	lui	a5,0x10
    80000258:	fff78513          	addi	a0,a5,-1 # ffff <_entry-0x7fff0001>
    8000025c:	00000097          	auipc	ra,0x0
    80000260:	eb0080e7          	jalr	-336(ra) # 8000010c <w_medeleg>
  w_mideleg(0xffff);
    80000264:	67c1                	lui	a5,0x10
    80000266:	fff78513          	addi	a0,a5,-1 # ffff <_entry-0x7fff0001>
    8000026a:	00000097          	auipc	ra,0x0
    8000026e:	ec0080e7          	jalr	-320(ra) # 8000012a <w_mideleg>
  w_sie(r_sie() | SIE_SEIE | SIE_STIE | SIE_SSIE);
    80000272:	00000097          	auipc	ra,0x0
    80000276:	e22080e7          	jalr	-478(ra) # 80000094 <r_sie>
    8000027a:	87aa                	mv	a5,a0
    8000027c:	2227e793          	ori	a5,a5,546
    80000280:	853e                	mv	a0,a5
    80000282:	00000097          	auipc	ra,0x0
    80000286:	e30080e7          	jalr	-464(ra) # 800000b2 <w_sie>

  // configure Physical Memory Protection to give supervisor mode
  // access to all of physical memory.
  w_pmpaddr0(0x3fffffffffffffull);
    8000028a:	57fd                	li	a5,-1
    8000028c:	00a7d513          	srli	a0,a5,0xa
    80000290:	00000097          	auipc	ra,0x0
    80000294:	ef4080e7          	jalr	-268(ra) # 80000184 <w_pmpaddr0>
  w_pmpcfg0(0xf);
    80000298:	453d                	li	a0,15
    8000029a:	00000097          	auipc	ra,0x0
    8000029e:	ecc080e7          	jalr	-308(ra) # 80000166 <w_pmpcfg0>

  // ask for clock interrupts.
  timerinit();
    800002a2:	00000097          	auipc	ra,0x0
    800002a6:	032080e7          	jalr	50(ra) # 800002d4 <timerinit>

  // keep each CPU's hartid in its tp register, for cpuid().
  int id = r_mhartid();
    800002aa:	00000097          	auipc	ra,0x0
    800002ae:	d72080e7          	jalr	-654(ra) # 8000001c <r_mhartid>
    800002b2:	87aa                	mv	a5,a0
    800002b4:	fef42223          	sw	a5,-28(s0)
  w_tp(id);
    800002b8:	fe442783          	lw	a5,-28(s0)
    800002bc:	853e                	mv	a0,a5
    800002be:	00000097          	auipc	ra,0x0
    800002c2:	f20080e7          	jalr	-224(ra) # 800001de <w_tp>

  // switch to supervisor mode and jump to main().
  asm volatile("mret");
    800002c6:	30200073          	mret
}
    800002ca:	0001                	nop
    800002cc:	60e2                	ld	ra,24(sp)
    800002ce:	6442                	ld	s0,16(sp)
    800002d0:	6105                	addi	sp,sp,32
    800002d2:	8082                	ret

00000000800002d4 <timerinit>:
// at timervec in kernelvec.S,
// which turns them into software interrupts for
// devintr() in trap.c.
void
timerinit()
{
    800002d4:	1101                	addi	sp,sp,-32
    800002d6:	ec06                	sd	ra,24(sp)
    800002d8:	e822                	sd	s0,16(sp)
    800002da:	1000                	addi	s0,sp,32
  // each CPU has a separate source of timer interrupts.
  int id = r_mhartid();
    800002dc:	00000097          	auipc	ra,0x0
    800002e0:	d40080e7          	jalr	-704(ra) # 8000001c <r_mhartid>
    800002e4:	87aa                	mv	a5,a0
    800002e6:	fef42623          	sw	a5,-20(s0)

  // ask the CLINT for a timer interrupt.
  int interval = 1000000; // cycles; about 1/10th second in qemu.
    800002ea:	000f47b7          	lui	a5,0xf4
    800002ee:	24078793          	addi	a5,a5,576 # f4240 <_entry-0x7ff0bdc0>
    800002f2:	fef42423          	sw	a5,-24(s0)
  *(uint64*)CLINT_MTIMECMP(id) = *(uint64*)CLINT_MTIME + interval;
    800002f6:	0200c7b7          	lui	a5,0x200c
    800002fa:	17e1                	addi	a5,a5,-8 # 200bff8 <_entry-0x7dff4008>
    800002fc:	6398                	ld	a4,0(a5)
    800002fe:	fe842783          	lw	a5,-24(s0)
    80000302:	fec42683          	lw	a3,-20(s0)
    80000306:	0036969b          	slliw	a3,a3,0x3
    8000030a:	2681                	sext.w	a3,a3
    8000030c:	8636                	mv	a2,a3
    8000030e:	020046b7          	lui	a3,0x2004
    80000312:	96b2                	add	a3,a3,a2
    80000314:	97ba                	add	a5,a5,a4
    80000316:	e29c                	sd	a5,0(a3)

  // prepare information in scratch[] for timervec.
  // scratch[0..2] : space for timervec to save registers.
  // scratch[3] : address of CLINT MTIMECMP register.
  // scratch[4] : desired interval (in cycles) between timer interrupts.
  uint64 *scratch = &timer_scratch[id][0];
    80000318:	fec42703          	lw	a4,-20(s0)
    8000031c:	87ba                	mv	a5,a4
    8000031e:	078a                	slli	a5,a5,0x2
    80000320:	97ba                	add	a5,a5,a4
    80000322:	078e                	slli	a5,a5,0x3
    80000324:	00013717          	auipc	a4,0x13
    80000328:	5ac70713          	addi	a4,a4,1452 # 800138d0 <timer_scratch>
    8000032c:	97ba                	add	a5,a5,a4
    8000032e:	fef43023          	sd	a5,-32(s0)
  scratch[3] = CLINT_MTIMECMP(id);
    80000332:	fec42783          	lw	a5,-20(s0)
    80000336:	0037979b          	slliw	a5,a5,0x3
    8000033a:	2781                	sext.w	a5,a5
    8000033c:	873e                	mv	a4,a5
    8000033e:	020047b7          	lui	a5,0x2004
    80000342:	973e                	add	a4,a4,a5
    80000344:	fe043783          	ld	a5,-32(s0)
    80000348:	07e1                	addi	a5,a5,24 # 2004018 <_entry-0x7dffbfe8>
    8000034a:	e398                	sd	a4,0(a5)
  scratch[4] = interval;
    8000034c:	fe043783          	ld	a5,-32(s0)
    80000350:	02078793          	addi	a5,a5,32
    80000354:	fe842703          	lw	a4,-24(s0)
    80000358:	e398                	sd	a4,0(a5)
  w_mscratch((uint64)scratch);
    8000035a:	fe043783          	ld	a5,-32(s0)
    8000035e:	853e                	mv	a0,a5
    80000360:	00000097          	auipc	ra,0x0
    80000364:	e60080e7          	jalr	-416(ra) # 800001c0 <w_mscratch>

  // set the machine-mode trap handler.
  w_mtvec((uint64)timervec);
    80000368:	00008797          	auipc	a5,0x8
    8000036c:	4b878793          	addi	a5,a5,1208 # 80008820 <timervec>
    80000370:	853e                	mv	a0,a5
    80000372:	00000097          	auipc	ra,0x0
    80000376:	dd6080e7          	jalr	-554(ra) # 80000148 <w_mtvec>

  // enable machine-mode interrupts.
  w_mstatus(r_mstatus() | MSTATUS_MIE);
    8000037a:	00000097          	auipc	ra,0x0
    8000037e:	cc0080e7          	jalr	-832(ra) # 8000003a <r_mstatus>
    80000382:	87aa                	mv	a5,a0
    80000384:	0087e793          	ori	a5,a5,8
    80000388:	853e                	mv	a0,a5
    8000038a:	00000097          	auipc	ra,0x0
    8000038e:	cce080e7          	jalr	-818(ra) # 80000058 <w_mstatus>

  // enable machine-mode timer interrupts.
  w_mie(r_mie() | MIE_MTIE);
    80000392:	00000097          	auipc	ra,0x0
    80000396:	d3e080e7          	jalr	-706(ra) # 800000d0 <r_mie>
    8000039a:	87aa                	mv	a5,a0
    8000039c:	0807e793          	ori	a5,a5,128
    800003a0:	853e                	mv	a0,a5
    800003a2:	00000097          	auipc	ra,0x0
    800003a6:	d4c080e7          	jalr	-692(ra) # 800000ee <w_mie>
}
    800003aa:	0001                	nop
    800003ac:	60e2                	ld	ra,24(sp)
    800003ae:	6442                	ld	s0,16(sp)
    800003b0:	6105                	addi	sp,sp,32
    800003b2:	8082                	ret

00000000800003b4 <consputc>:
// called by printf(), and to echo input characters,
// but not from write().
//
void
consputc(int c)
{
    800003b4:	1101                	addi	sp,sp,-32
    800003b6:	ec06                	sd	ra,24(sp)
    800003b8:	e822                	sd	s0,16(sp)
    800003ba:	1000                	addi	s0,sp,32
    800003bc:	87aa                	mv	a5,a0
    800003be:	fef42623          	sw	a5,-20(s0)
  if(c == BACKSPACE){
    800003c2:	fec42783          	lw	a5,-20(s0)
    800003c6:	0007871b          	sext.w	a4,a5
    800003ca:	10000793          	li	a5,256
    800003ce:	02f71363          	bne	a4,a5,800003f4 <consputc+0x40>
    // if the user typed backspace, overwrite with a space.
    uartputc_sync('\b'); uartputc_sync(' '); uartputc_sync('\b');
    800003d2:	4521                	li	a0,8
    800003d4:	00001097          	auipc	ra,0x1
    800003d8:	ab0080e7          	jalr	-1360(ra) # 80000e84 <uartputc_sync>
    800003dc:	02000513          	li	a0,32
    800003e0:	00001097          	auipc	ra,0x1
    800003e4:	aa4080e7          	jalr	-1372(ra) # 80000e84 <uartputc_sync>
    800003e8:	4521                	li	a0,8
    800003ea:	00001097          	auipc	ra,0x1
    800003ee:	a9a080e7          	jalr	-1382(ra) # 80000e84 <uartputc_sync>
  } else {
    uartputc_sync(c);
  }
}
    800003f2:	a801                	j	80000402 <consputc+0x4e>
    uartputc_sync(c);
    800003f4:	fec42783          	lw	a5,-20(s0)
    800003f8:	853e                	mv	a0,a5
    800003fa:	00001097          	auipc	ra,0x1
    800003fe:	a8a080e7          	jalr	-1398(ra) # 80000e84 <uartputc_sync>
}
    80000402:	0001                	nop
    80000404:	60e2                	ld	ra,24(sp)
    80000406:	6442                	ld	s0,16(sp)
    80000408:	6105                	addi	sp,sp,32
    8000040a:	8082                	ret

000000008000040c <consolewrite>:
//
// user write()s to the console go here.
//
int
consolewrite(int user_src, uint64 src, int n)
{
    8000040c:	7179                	addi	sp,sp,-48
    8000040e:	f406                	sd	ra,40(sp)
    80000410:	f022                	sd	s0,32(sp)
    80000412:	1800                	addi	s0,sp,48
    80000414:	87aa                	mv	a5,a0
    80000416:	fcb43823          	sd	a1,-48(s0)
    8000041a:	8732                	mv	a4,a2
    8000041c:	fcf42e23          	sw	a5,-36(s0)
    80000420:	87ba                	mv	a5,a4
    80000422:	fcf42c23          	sw	a5,-40(s0)
  int i;

  for(i = 0; i < n; i++){
    80000426:	fe042623          	sw	zero,-20(s0)
    8000042a:	a0a1                	j	80000472 <consolewrite+0x66>
    char c;
    if(either_copyin(&c, user_src, src+i, 1) == -1)
    8000042c:	fec42703          	lw	a4,-20(s0)
    80000430:	fd043783          	ld	a5,-48(s0)
    80000434:	00f70633          	add	a2,a4,a5
    80000438:	fdc42703          	lw	a4,-36(s0)
    8000043c:	feb40793          	addi	a5,s0,-21
    80000440:	4685                	li	a3,1
    80000442:	85ba                	mv	a1,a4
    80000444:	853e                	mv	a0,a5
    80000446:	00003097          	auipc	ra,0x3
    8000044a:	2ca080e7          	jalr	714(ra) # 80003710 <either_copyin>
    8000044e:	87aa                	mv	a5,a0
    80000450:	873e                	mv	a4,a5
    80000452:	57fd                	li	a5,-1
    80000454:	02f70963          	beq	a4,a5,80000486 <consolewrite+0x7a>
      break;
    uartputc(c);
    80000458:	feb44783          	lbu	a5,-21(s0)
    8000045c:	2781                	sext.w	a5,a5
    8000045e:	853e                	mv	a0,a5
    80000460:	00001097          	auipc	ra,0x1
    80000464:	964080e7          	jalr	-1692(ra) # 80000dc4 <uartputc>
  for(i = 0; i < n; i++){
    80000468:	fec42783          	lw	a5,-20(s0)
    8000046c:	2785                	addiw	a5,a5,1
    8000046e:	fef42623          	sw	a5,-20(s0)
    80000472:	fec42783          	lw	a5,-20(s0)
    80000476:	873e                	mv	a4,a5
    80000478:	fd842783          	lw	a5,-40(s0)
    8000047c:	2701                	sext.w	a4,a4
    8000047e:	2781                	sext.w	a5,a5
    80000480:	faf746e3          	blt	a4,a5,8000042c <consolewrite+0x20>
    80000484:	a011                	j	80000488 <consolewrite+0x7c>
      break;
    80000486:	0001                	nop
  }

  return i;
    80000488:	fec42783          	lw	a5,-20(s0)
}
    8000048c:	853e                	mv	a0,a5
    8000048e:	70a2                	ld	ra,40(sp)
    80000490:	7402                	ld	s0,32(sp)
    80000492:	6145                	addi	sp,sp,48
    80000494:	8082                	ret

0000000080000496 <consoleread>:
// user_dist indicates whether dst is a user
// or kernel address.
//
int
consoleread(int user_dst, uint64 dst, int n)
{
    80000496:	7179                	addi	sp,sp,-48
    80000498:	f406                	sd	ra,40(sp)
    8000049a:	f022                	sd	s0,32(sp)
    8000049c:	1800                	addi	s0,sp,48
    8000049e:	87aa                	mv	a5,a0
    800004a0:	fcb43823          	sd	a1,-48(s0)
    800004a4:	8732                	mv	a4,a2
    800004a6:	fcf42e23          	sw	a5,-36(s0)
    800004aa:	87ba                	mv	a5,a4
    800004ac:	fcf42c23          	sw	a5,-40(s0)
  uint target;
  int c;
  char cbuf;

  target = n;
    800004b0:	fd842783          	lw	a5,-40(s0)
    800004b4:	fef42623          	sw	a5,-20(s0)
  acquire(&cons.lock);
    800004b8:	00013517          	auipc	a0,0x13
    800004bc:	55850513          	addi	a0,a0,1368 # 80013a10 <cons>
    800004c0:	00001097          	auipc	ra,0x1
    800004c4:	e04080e7          	jalr	-508(ra) # 800012c4 <acquire>
  while(n > 0){
    800004c8:	a235                	j	800005f4 <consoleread+0x15e>
    // wait until interrupt handler has put some
    // input into cons.buffer.
    while(cons.r == cons.w){
      if(killed(myproc())){
    800004ca:	00002097          	auipc	ra,0x2
    800004ce:	3f2080e7          	jalr	1010(ra) # 800028bc <myproc>
    800004d2:	87aa                	mv	a5,a0
    800004d4:	853e                	mv	a0,a5
    800004d6:	00003097          	auipc	ra,0x3
    800004da:	186080e7          	jalr	390(ra) # 8000365c <killed>
    800004de:	87aa                	mv	a5,a0
    800004e0:	cb99                	beqz	a5,800004f6 <consoleread+0x60>
        release(&cons.lock);
    800004e2:	00013517          	auipc	a0,0x13
    800004e6:	52e50513          	addi	a0,a0,1326 # 80013a10 <cons>
    800004ea:	00001097          	auipc	ra,0x1
    800004ee:	e3e080e7          	jalr	-450(ra) # 80001328 <release>
        return -1;
    800004f2:	57fd                	li	a5,-1
    800004f4:	aa15                	j	80000628 <consoleread+0x192>
      }
      sleep(&cons.r, &cons.lock);
    800004f6:	00013597          	auipc	a1,0x13
    800004fa:	51a58593          	addi	a1,a1,1306 # 80013a10 <cons>
    800004fe:	00013517          	auipc	a0,0x13
    80000502:	5aa50513          	addi	a0,a0,1450 # 80013aa8 <cons+0x98>
    80000506:	00003097          	auipc	ra,0x3
    8000050a:	f70080e7          	jalr	-144(ra) # 80003476 <sleep>
    while(cons.r == cons.w){
    8000050e:	00013797          	auipc	a5,0x13
    80000512:	50278793          	addi	a5,a5,1282 # 80013a10 <cons>
    80000516:	0987a703          	lw	a4,152(a5)
    8000051a:	00013797          	auipc	a5,0x13
    8000051e:	4f678793          	addi	a5,a5,1270 # 80013a10 <cons>
    80000522:	09c7a783          	lw	a5,156(a5)
    80000526:	faf702e3          	beq	a4,a5,800004ca <consoleread+0x34>
    }

    c = cons.buf[cons.r++ % INPUT_BUF_SIZE];
    8000052a:	00013797          	auipc	a5,0x13
    8000052e:	4e678793          	addi	a5,a5,1254 # 80013a10 <cons>
    80000532:	0987a783          	lw	a5,152(a5)
    80000536:	0017871b          	addiw	a4,a5,1
    8000053a:	0007069b          	sext.w	a3,a4
    8000053e:	00013717          	auipc	a4,0x13
    80000542:	4d270713          	addi	a4,a4,1234 # 80013a10 <cons>
    80000546:	08d72c23          	sw	a3,152(a4)
    8000054a:	07f7f793          	andi	a5,a5,127
    8000054e:	2781                	sext.w	a5,a5
    80000550:	00013717          	auipc	a4,0x13
    80000554:	4c070713          	addi	a4,a4,1216 # 80013a10 <cons>
    80000558:	1782                	slli	a5,a5,0x20
    8000055a:	9381                	srli	a5,a5,0x20
    8000055c:	97ba                	add	a5,a5,a4
    8000055e:	0187c783          	lbu	a5,24(a5)
    80000562:	fef42423          	sw	a5,-24(s0)

    if(c == C('D')){  // end-of-file
    80000566:	fe842783          	lw	a5,-24(s0)
    8000056a:	0007871b          	sext.w	a4,a5
    8000056e:	4791                	li	a5,4
    80000570:	02f71963          	bne	a4,a5,800005a2 <consoleread+0x10c>
      if(n < target){
    80000574:	fd842783          	lw	a5,-40(s0)
    80000578:	fec42703          	lw	a4,-20(s0)
    8000057c:	2701                	sext.w	a4,a4
    8000057e:	08e7f163          	bgeu	a5,a4,80000600 <consoleread+0x16a>
        // Save ^D for next time, to make sure
        // caller gets a 0-byte result.
        cons.r--;
    80000582:	00013797          	auipc	a5,0x13
    80000586:	48e78793          	addi	a5,a5,1166 # 80013a10 <cons>
    8000058a:	0987a783          	lw	a5,152(a5)
    8000058e:	37fd                	addiw	a5,a5,-1
    80000590:	0007871b          	sext.w	a4,a5
    80000594:	00013797          	auipc	a5,0x13
    80000598:	47c78793          	addi	a5,a5,1148 # 80013a10 <cons>
    8000059c:	08e7ac23          	sw	a4,152(a5)
      }
      break;
    800005a0:	a085                	j	80000600 <consoleread+0x16a>
    }

    // copy the input byte to the user-space buffer.
    cbuf = c;
    800005a2:	fe842783          	lw	a5,-24(s0)
    800005a6:	0ff7f793          	zext.b	a5,a5
    800005aa:	fef403a3          	sb	a5,-25(s0)
    if(either_copyout(user_dst, dst, &cbuf, 1) == -1)
    800005ae:	fe740713          	addi	a4,s0,-25
    800005b2:	fdc42783          	lw	a5,-36(s0)
    800005b6:	4685                	li	a3,1
    800005b8:	863a                	mv	a2,a4
    800005ba:	fd043583          	ld	a1,-48(s0)
    800005be:	853e                	mv	a0,a5
    800005c0:	00003097          	auipc	ra,0x3
    800005c4:	0dc080e7          	jalr	220(ra) # 8000369c <either_copyout>
    800005c8:	87aa                	mv	a5,a0
    800005ca:	873e                	mv	a4,a5
    800005cc:	57fd                	li	a5,-1
    800005ce:	02f70b63          	beq	a4,a5,80000604 <consoleread+0x16e>
      break;

    dst++;
    800005d2:	fd043783          	ld	a5,-48(s0)
    800005d6:	0785                	addi	a5,a5,1
    800005d8:	fcf43823          	sd	a5,-48(s0)
    --n;
    800005dc:	fd842783          	lw	a5,-40(s0)
    800005e0:	37fd                	addiw	a5,a5,-1
    800005e2:	fcf42c23          	sw	a5,-40(s0)

    if(c == '\n'){
    800005e6:	fe842783          	lw	a5,-24(s0)
    800005ea:	0007871b          	sext.w	a4,a5
    800005ee:	47a9                	li	a5,10
    800005f0:	00f70c63          	beq	a4,a5,80000608 <consoleread+0x172>
  while(n > 0){
    800005f4:	fd842783          	lw	a5,-40(s0)
    800005f8:	2781                	sext.w	a5,a5
    800005fa:	f0f04ae3          	bgtz	a5,8000050e <consoleread+0x78>
    800005fe:	a031                	j	8000060a <consoleread+0x174>
      break;
    80000600:	0001                	nop
    80000602:	a021                	j	8000060a <consoleread+0x174>
      break;
    80000604:	0001                	nop
    80000606:	a011                	j	8000060a <consoleread+0x174>
      // a whole line has arrived, return to
      // the user-level read().
      break;
    80000608:	0001                	nop
    }
  }
  release(&cons.lock);
    8000060a:	00013517          	auipc	a0,0x13
    8000060e:	40650513          	addi	a0,a0,1030 # 80013a10 <cons>
    80000612:	00001097          	auipc	ra,0x1
    80000616:	d16080e7          	jalr	-746(ra) # 80001328 <release>

  return target - n;
    8000061a:	fd842783          	lw	a5,-40(s0)
    8000061e:	fec42703          	lw	a4,-20(s0)
    80000622:	40f707bb          	subw	a5,a4,a5
    80000626:	2781                	sext.w	a5,a5
}
    80000628:	853e                	mv	a0,a5
    8000062a:	70a2                	ld	ra,40(sp)
    8000062c:	7402                	ld	s0,32(sp)
    8000062e:	6145                	addi	sp,sp,48
    80000630:	8082                	ret

0000000080000632 <consoleintr>:
// do erase/kill processing, append to cons.buf,
// wake up consoleread() if a whole line has arrived.
//
void
consoleintr(int c)
{
    80000632:	1101                	addi	sp,sp,-32
    80000634:	ec06                	sd	ra,24(sp)
    80000636:	e822                	sd	s0,16(sp)
    80000638:	1000                	addi	s0,sp,32
    8000063a:	87aa                	mv	a5,a0
    8000063c:	fef42623          	sw	a5,-20(s0)
  acquire(&cons.lock);
    80000640:	00013517          	auipc	a0,0x13
    80000644:	3d050513          	addi	a0,a0,976 # 80013a10 <cons>
    80000648:	00001097          	auipc	ra,0x1
    8000064c:	c7c080e7          	jalr	-900(ra) # 800012c4 <acquire>

  switch(c){
    80000650:	fec42783          	lw	a5,-20(s0)
    80000654:	0007871b          	sext.w	a4,a5
    80000658:	07f00793          	li	a5,127
    8000065c:	0cf70763          	beq	a4,a5,8000072a <consoleintr+0xf8>
    80000660:	fec42783          	lw	a5,-20(s0)
    80000664:	0007871b          	sext.w	a4,a5
    80000668:	07f00793          	li	a5,127
    8000066c:	10e7c363          	blt	a5,a4,80000772 <consoleintr+0x140>
    80000670:	fec42783          	lw	a5,-20(s0)
    80000674:	0007871b          	sext.w	a4,a5
    80000678:	47d5                	li	a5,21
    8000067a:	06f70163          	beq	a4,a5,800006dc <consoleintr+0xaa>
    8000067e:	fec42783          	lw	a5,-20(s0)
    80000682:	0007871b          	sext.w	a4,a5
    80000686:	47d5                	li	a5,21
    80000688:	0ee7c563          	blt	a5,a4,80000772 <consoleintr+0x140>
    8000068c:	fec42783          	lw	a5,-20(s0)
    80000690:	0007871b          	sext.w	a4,a5
    80000694:	47a1                	li	a5,8
    80000696:	08f70a63          	beq	a4,a5,8000072a <consoleintr+0xf8>
    8000069a:	fec42783          	lw	a5,-20(s0)
    8000069e:	0007871b          	sext.w	a4,a5
    800006a2:	47c1                	li	a5,16
    800006a4:	0cf71763          	bne	a4,a5,80000772 <consoleintr+0x140>
  case C('P'):  // Print process list.
    procdump();
    800006a8:	00003097          	auipc	ra,0x3
    800006ac:	0dc080e7          	jalr	220(ra) # 80003784 <procdump>
    break;
    800006b0:	aad1                	j	80000884 <consoleintr+0x252>
  case C('U'):  // Kill line.
    while(cons.e != cons.w &&
          cons.buf[(cons.e-1) % INPUT_BUF_SIZE] != '\n'){
      cons.e--;
    800006b2:	00013797          	auipc	a5,0x13
    800006b6:	35e78793          	addi	a5,a5,862 # 80013a10 <cons>
    800006ba:	0a07a783          	lw	a5,160(a5)
    800006be:	37fd                	addiw	a5,a5,-1
    800006c0:	0007871b          	sext.w	a4,a5
    800006c4:	00013797          	auipc	a5,0x13
    800006c8:	34c78793          	addi	a5,a5,844 # 80013a10 <cons>
    800006cc:	0ae7a023          	sw	a4,160(a5)
      consputc(BACKSPACE);
    800006d0:	10000513          	li	a0,256
    800006d4:	00000097          	auipc	ra,0x0
    800006d8:	ce0080e7          	jalr	-800(ra) # 800003b4 <consputc>
    while(cons.e != cons.w &&
    800006dc:	00013797          	auipc	a5,0x13
    800006e0:	33478793          	addi	a5,a5,820 # 80013a10 <cons>
    800006e4:	0a07a703          	lw	a4,160(a5)
    800006e8:	00013797          	auipc	a5,0x13
    800006ec:	32878793          	addi	a5,a5,808 # 80013a10 <cons>
    800006f0:	09c7a783          	lw	a5,156(a5)
    800006f4:	18f70363          	beq	a4,a5,8000087a <consoleintr+0x248>
          cons.buf[(cons.e-1) % INPUT_BUF_SIZE] != '\n'){
    800006f8:	00013797          	auipc	a5,0x13
    800006fc:	31878793          	addi	a5,a5,792 # 80013a10 <cons>
    80000700:	0a07a783          	lw	a5,160(a5)
    80000704:	37fd                	addiw	a5,a5,-1
    80000706:	2781                	sext.w	a5,a5
    80000708:	07f7f793          	andi	a5,a5,127
    8000070c:	2781                	sext.w	a5,a5
    8000070e:	00013717          	auipc	a4,0x13
    80000712:	30270713          	addi	a4,a4,770 # 80013a10 <cons>
    80000716:	1782                	slli	a5,a5,0x20
    80000718:	9381                	srli	a5,a5,0x20
    8000071a:	97ba                	add	a5,a5,a4
    8000071c:	0187c783          	lbu	a5,24(a5)
    while(cons.e != cons.w &&
    80000720:	873e                	mv	a4,a5
    80000722:	47a9                	li	a5,10
    80000724:	f8f717e3          	bne	a4,a5,800006b2 <consoleintr+0x80>
    }
    break;
    80000728:	aa89                	j	8000087a <consoleintr+0x248>
  case C('H'): // Backspace
  case '\x7f': // Delete key
    if(cons.e != cons.w){
    8000072a:	00013797          	auipc	a5,0x13
    8000072e:	2e678793          	addi	a5,a5,742 # 80013a10 <cons>
    80000732:	0a07a703          	lw	a4,160(a5)
    80000736:	00013797          	auipc	a5,0x13
    8000073a:	2da78793          	addi	a5,a5,730 # 80013a10 <cons>
    8000073e:	09c7a783          	lw	a5,156(a5)
    80000742:	12f70e63          	beq	a4,a5,8000087e <consoleintr+0x24c>
      cons.e--;
    80000746:	00013797          	auipc	a5,0x13
    8000074a:	2ca78793          	addi	a5,a5,714 # 80013a10 <cons>
    8000074e:	0a07a783          	lw	a5,160(a5)
    80000752:	37fd                	addiw	a5,a5,-1
    80000754:	0007871b          	sext.w	a4,a5
    80000758:	00013797          	auipc	a5,0x13
    8000075c:	2b878793          	addi	a5,a5,696 # 80013a10 <cons>
    80000760:	0ae7a023          	sw	a4,160(a5)
      consputc(BACKSPACE);
    80000764:	10000513          	li	a0,256
    80000768:	00000097          	auipc	ra,0x0
    8000076c:	c4c080e7          	jalr	-948(ra) # 800003b4 <consputc>
    }
    break;
    80000770:	a239                	j	8000087e <consoleintr+0x24c>
  default:
    if(c != 0 && cons.e-cons.r < INPUT_BUF_SIZE){
    80000772:	fec42783          	lw	a5,-20(s0)
    80000776:	2781                	sext.w	a5,a5
    80000778:	10078563          	beqz	a5,80000882 <consoleintr+0x250>
    8000077c:	00013797          	auipc	a5,0x13
    80000780:	29478793          	addi	a5,a5,660 # 80013a10 <cons>
    80000784:	0a07a703          	lw	a4,160(a5)
    80000788:	00013797          	auipc	a5,0x13
    8000078c:	28878793          	addi	a5,a5,648 # 80013a10 <cons>
    80000790:	0987a783          	lw	a5,152(a5)
    80000794:	40f707bb          	subw	a5,a4,a5
    80000798:	0007871b          	sext.w	a4,a5
    8000079c:	07f00793          	li	a5,127
    800007a0:	0ee7e163          	bltu	a5,a4,80000882 <consoleintr+0x250>
      c = (c == '\r') ? '\n' : c;
    800007a4:	fec42783          	lw	a5,-20(s0)
    800007a8:	0007871b          	sext.w	a4,a5
    800007ac:	47b5                	li	a5,13
    800007ae:	00f70563          	beq	a4,a5,800007b8 <consoleintr+0x186>
    800007b2:	fec42783          	lw	a5,-20(s0)
    800007b6:	a011                	j	800007ba <consoleintr+0x188>
    800007b8:	47a9                	li	a5,10
    800007ba:	fef42623          	sw	a5,-20(s0)

      // echo back to the user.
      consputc(c);
    800007be:	fec42783          	lw	a5,-20(s0)
    800007c2:	853e                	mv	a0,a5
    800007c4:	00000097          	auipc	ra,0x0
    800007c8:	bf0080e7          	jalr	-1040(ra) # 800003b4 <consputc>

      // store for consumption by consoleread().
      cons.buf[cons.e++ % INPUT_BUF_SIZE] = c;
    800007cc:	00013797          	auipc	a5,0x13
    800007d0:	24478793          	addi	a5,a5,580 # 80013a10 <cons>
    800007d4:	0a07a783          	lw	a5,160(a5)
    800007d8:	0017871b          	addiw	a4,a5,1
    800007dc:	0007069b          	sext.w	a3,a4
    800007e0:	00013717          	auipc	a4,0x13
    800007e4:	23070713          	addi	a4,a4,560 # 80013a10 <cons>
    800007e8:	0ad72023          	sw	a3,160(a4)
    800007ec:	07f7f793          	andi	a5,a5,127
    800007f0:	2781                	sext.w	a5,a5
    800007f2:	fec42703          	lw	a4,-20(s0)
    800007f6:	0ff77713          	zext.b	a4,a4
    800007fa:	00013697          	auipc	a3,0x13
    800007fe:	21668693          	addi	a3,a3,534 # 80013a10 <cons>
    80000802:	1782                	slli	a5,a5,0x20
    80000804:	9381                	srli	a5,a5,0x20
    80000806:	97b6                	add	a5,a5,a3
    80000808:	00e78c23          	sb	a4,24(a5)

      if(c == '\n' || c == C('D') || cons.e-cons.r == INPUT_BUF_SIZE){
    8000080c:	fec42783          	lw	a5,-20(s0)
    80000810:	0007871b          	sext.w	a4,a5
    80000814:	47a9                	li	a5,10
    80000816:	02f70d63          	beq	a4,a5,80000850 <consoleintr+0x21e>
    8000081a:	fec42783          	lw	a5,-20(s0)
    8000081e:	0007871b          	sext.w	a4,a5
    80000822:	4791                	li	a5,4
    80000824:	02f70663          	beq	a4,a5,80000850 <consoleintr+0x21e>
    80000828:	00013797          	auipc	a5,0x13
    8000082c:	1e878793          	addi	a5,a5,488 # 80013a10 <cons>
    80000830:	0a07a703          	lw	a4,160(a5)
    80000834:	00013797          	auipc	a5,0x13
    80000838:	1dc78793          	addi	a5,a5,476 # 80013a10 <cons>
    8000083c:	0987a783          	lw	a5,152(a5)
    80000840:	40f707bb          	subw	a5,a4,a5
    80000844:	0007871b          	sext.w	a4,a5
    80000848:	08000793          	li	a5,128
    8000084c:	02f71b63          	bne	a4,a5,80000882 <consoleintr+0x250>
        // wake up consoleread() if a whole line (or end-of-file)
        // has arrived.
        cons.w = cons.e;
    80000850:	00013797          	auipc	a5,0x13
    80000854:	1c078793          	addi	a5,a5,448 # 80013a10 <cons>
    80000858:	0a07a703          	lw	a4,160(a5)
    8000085c:	00013797          	auipc	a5,0x13
    80000860:	1b478793          	addi	a5,a5,436 # 80013a10 <cons>
    80000864:	08e7ae23          	sw	a4,156(a5)
        wakeup(&cons.r);
    80000868:	00013517          	auipc	a0,0x13
    8000086c:	24050513          	addi	a0,a0,576 # 80013aa8 <cons+0x98>
    80000870:	00003097          	auipc	ra,0x3
    80000874:	c82080e7          	jalr	-894(ra) # 800034f2 <wakeup>
      }
    }
    break;
    80000878:	a029                	j	80000882 <consoleintr+0x250>
    break;
    8000087a:	0001                	nop
    8000087c:	a021                	j	80000884 <consoleintr+0x252>
    break;
    8000087e:	0001                	nop
    80000880:	a011                	j	80000884 <consoleintr+0x252>
    break;
    80000882:	0001                	nop
  }
  
  release(&cons.lock);
    80000884:	00013517          	auipc	a0,0x13
    80000888:	18c50513          	addi	a0,a0,396 # 80013a10 <cons>
    8000088c:	00001097          	auipc	ra,0x1
    80000890:	a9c080e7          	jalr	-1380(ra) # 80001328 <release>
}
    80000894:	0001                	nop
    80000896:	60e2                	ld	ra,24(sp)
    80000898:	6442                	ld	s0,16(sp)
    8000089a:	6105                	addi	sp,sp,32
    8000089c:	8082                	ret

000000008000089e <consoleinit>:

void
consoleinit(void)
{
    8000089e:	1141                	addi	sp,sp,-16
    800008a0:	e406                	sd	ra,8(sp)
    800008a2:	e022                	sd	s0,0(sp)
    800008a4:	0800                	addi	s0,sp,16
  initlock(&cons.lock, "cons");
    800008a6:	0000a597          	auipc	a1,0xa
    800008aa:	75a58593          	addi	a1,a1,1882 # 8000b000 <etext>
    800008ae:	00013517          	auipc	a0,0x13
    800008b2:	16250513          	addi	a0,a0,354 # 80013a10 <cons>
    800008b6:	00001097          	auipc	ra,0x1
    800008ba:	9da080e7          	jalr	-1574(ra) # 80001290 <initlock>

  uartinit();
    800008be:	00000097          	auipc	ra,0x0
    800008c2:	48c080e7          	jalr	1164(ra) # 80000d4a <uartinit>

  // connect read and write system calls
  // to consoleread and consolewrite.
  devsw[CONSOLE].read = consoleread;
    800008c6:	00023797          	auipc	a5,0x23
    800008ca:	2ea78793          	addi	a5,a5,746 # 80023bb0 <devsw>
    800008ce:	00000717          	auipc	a4,0x0
    800008d2:	bc870713          	addi	a4,a4,-1080 # 80000496 <consoleread>
    800008d6:	eb98                	sd	a4,16(a5)
  devsw[CONSOLE].write = consolewrite;
    800008d8:	00023797          	auipc	a5,0x23
    800008dc:	2d878793          	addi	a5,a5,728 # 80023bb0 <devsw>
    800008e0:	00000717          	auipc	a4,0x0
    800008e4:	b2c70713          	addi	a4,a4,-1236 # 8000040c <consolewrite>
    800008e8:	ef98                	sd	a4,24(a5)
}
    800008ea:	0001                	nop
    800008ec:	60a2                	ld	ra,8(sp)
    800008ee:	6402                	ld	s0,0(sp)
    800008f0:	0141                	addi	sp,sp,16
    800008f2:	8082                	ret

00000000800008f4 <printint>:

static char digits[] = "0123456789abcdef";

static void
printint(int xx, int base, int sign)
{
    800008f4:	7139                	addi	sp,sp,-64
    800008f6:	fc06                	sd	ra,56(sp)
    800008f8:	f822                	sd	s0,48(sp)
    800008fa:	0080                	addi	s0,sp,64
    800008fc:	87aa                	mv	a5,a0
    800008fe:	86ae                	mv	a3,a1
    80000900:	8732                	mv	a4,a2
    80000902:	fcf42623          	sw	a5,-52(s0)
    80000906:	87b6                	mv	a5,a3
    80000908:	fcf42423          	sw	a5,-56(s0)
    8000090c:	87ba                	mv	a5,a4
    8000090e:	fcf42223          	sw	a5,-60(s0)
  char buf[16];
  int i;
  uint x;

  if(sign && (sign = xx < 0))
    80000912:	fc442783          	lw	a5,-60(s0)
    80000916:	2781                	sext.w	a5,a5
    80000918:	c78d                	beqz	a5,80000942 <printint+0x4e>
    8000091a:	fcc42783          	lw	a5,-52(s0)
    8000091e:	01f7d79b          	srliw	a5,a5,0x1f
    80000922:	0ff7f793          	zext.b	a5,a5
    80000926:	fcf42223          	sw	a5,-60(s0)
    8000092a:	fc442783          	lw	a5,-60(s0)
    8000092e:	2781                	sext.w	a5,a5
    80000930:	cb89                	beqz	a5,80000942 <printint+0x4e>
    x = -xx;
    80000932:	fcc42783          	lw	a5,-52(s0)
    80000936:	40f007bb          	negw	a5,a5
    8000093a:	2781                	sext.w	a5,a5
    8000093c:	fef42423          	sw	a5,-24(s0)
    80000940:	a029                	j	8000094a <printint+0x56>
  else
    x = xx;
    80000942:	fcc42783          	lw	a5,-52(s0)
    80000946:	fef42423          	sw	a5,-24(s0)

  i = 0;
    8000094a:	fe042623          	sw	zero,-20(s0)
  do {
    buf[i++] = digits[x % base];
    8000094e:	fc842783          	lw	a5,-56(s0)
    80000952:	fe842703          	lw	a4,-24(s0)
    80000956:	02f777bb          	remuw	a5,a4,a5
    8000095a:	0007871b          	sext.w	a4,a5
    8000095e:	fec42783          	lw	a5,-20(s0)
    80000962:	0017869b          	addiw	a3,a5,1
    80000966:	fed42623          	sw	a3,-20(s0)
    8000096a:	0000b697          	auipc	a3,0xb
    8000096e:	e0668693          	addi	a3,a3,-506 # 8000b770 <digits>
    80000972:	1702                	slli	a4,a4,0x20
    80000974:	9301                	srli	a4,a4,0x20
    80000976:	9736                	add	a4,a4,a3
    80000978:	00074703          	lbu	a4,0(a4)
    8000097c:	17c1                	addi	a5,a5,-16
    8000097e:	97a2                	add	a5,a5,s0
    80000980:	fee78423          	sb	a4,-24(a5)
  } while((x /= base) != 0);
    80000984:	fc842783          	lw	a5,-56(s0)
    80000988:	fe842703          	lw	a4,-24(s0)
    8000098c:	02f757bb          	divuw	a5,a4,a5
    80000990:	fef42423          	sw	a5,-24(s0)
    80000994:	fe842783          	lw	a5,-24(s0)
    80000998:	2781                	sext.w	a5,a5
    8000099a:	fbd5                	bnez	a5,8000094e <printint+0x5a>

  if(sign)
    8000099c:	fc442783          	lw	a5,-60(s0)
    800009a0:	2781                	sext.w	a5,a5
    800009a2:	cb95                	beqz	a5,800009d6 <printint+0xe2>
    buf[i++] = '-';
    800009a4:	fec42783          	lw	a5,-20(s0)
    800009a8:	0017871b          	addiw	a4,a5,1
    800009ac:	fee42623          	sw	a4,-20(s0)
    800009b0:	17c1                	addi	a5,a5,-16
    800009b2:	97a2                	add	a5,a5,s0
    800009b4:	02d00713          	li	a4,45
    800009b8:	fee78423          	sb	a4,-24(a5)

  while(--i >= 0)
    800009bc:	a829                	j	800009d6 <printint+0xe2>
    consputc(buf[i]);
    800009be:	fec42783          	lw	a5,-20(s0)
    800009c2:	17c1                	addi	a5,a5,-16
    800009c4:	97a2                	add	a5,a5,s0
    800009c6:	fe87c783          	lbu	a5,-24(a5)
    800009ca:	2781                	sext.w	a5,a5
    800009cc:	853e                	mv	a0,a5
    800009ce:	00000097          	auipc	ra,0x0
    800009d2:	9e6080e7          	jalr	-1562(ra) # 800003b4 <consputc>
  while(--i >= 0)
    800009d6:	fec42783          	lw	a5,-20(s0)
    800009da:	37fd                	addiw	a5,a5,-1
    800009dc:	fef42623          	sw	a5,-20(s0)
    800009e0:	fec42783          	lw	a5,-20(s0)
    800009e4:	2781                	sext.w	a5,a5
    800009e6:	fc07dce3          	bgez	a5,800009be <printint+0xca>
}
    800009ea:	0001                	nop
    800009ec:	0001                	nop
    800009ee:	70e2                	ld	ra,56(sp)
    800009f0:	7442                	ld	s0,48(sp)
    800009f2:	6121                	addi	sp,sp,64
    800009f4:	8082                	ret

00000000800009f6 <printptr>:

static void
printptr(uint64 x)
{
    800009f6:	7179                	addi	sp,sp,-48
    800009f8:	f406                	sd	ra,40(sp)
    800009fa:	f022                	sd	s0,32(sp)
    800009fc:	1800                	addi	s0,sp,48
    800009fe:	fca43c23          	sd	a0,-40(s0)
  int i;
  consputc('0');
    80000a02:	03000513          	li	a0,48
    80000a06:	00000097          	auipc	ra,0x0
    80000a0a:	9ae080e7          	jalr	-1618(ra) # 800003b4 <consputc>
  consputc('x');
    80000a0e:	07800513          	li	a0,120
    80000a12:	00000097          	auipc	ra,0x0
    80000a16:	9a2080e7          	jalr	-1630(ra) # 800003b4 <consputc>
  for (i = 0; i < (sizeof(uint64) * 2); i++, x <<= 4)
    80000a1a:	fe042623          	sw	zero,-20(s0)
    80000a1e:	a81d                	j	80000a54 <printptr+0x5e>
    consputc(digits[x >> (sizeof(uint64) * 8 - 4)]);
    80000a20:	fd843783          	ld	a5,-40(s0)
    80000a24:	93f1                	srli	a5,a5,0x3c
    80000a26:	0000b717          	auipc	a4,0xb
    80000a2a:	d4a70713          	addi	a4,a4,-694 # 8000b770 <digits>
    80000a2e:	97ba                	add	a5,a5,a4
    80000a30:	0007c783          	lbu	a5,0(a5)
    80000a34:	2781                	sext.w	a5,a5
    80000a36:	853e                	mv	a0,a5
    80000a38:	00000097          	auipc	ra,0x0
    80000a3c:	97c080e7          	jalr	-1668(ra) # 800003b4 <consputc>
  for (i = 0; i < (sizeof(uint64) * 2); i++, x <<= 4)
    80000a40:	fec42783          	lw	a5,-20(s0)
    80000a44:	2785                	addiw	a5,a5,1
    80000a46:	fef42623          	sw	a5,-20(s0)
    80000a4a:	fd843783          	ld	a5,-40(s0)
    80000a4e:	0792                	slli	a5,a5,0x4
    80000a50:	fcf43c23          	sd	a5,-40(s0)
    80000a54:	fec42703          	lw	a4,-20(s0)
    80000a58:	47bd                	li	a5,15
    80000a5a:	fce7f3e3          	bgeu	a5,a4,80000a20 <printptr+0x2a>
}
    80000a5e:	0001                	nop
    80000a60:	0001                	nop
    80000a62:	70a2                	ld	ra,40(sp)
    80000a64:	7402                	ld	s0,32(sp)
    80000a66:	6145                	addi	sp,sp,48
    80000a68:	8082                	ret

0000000080000a6a <printf>:

// Print to the console. only understands %d, %x, %p, %s.
void
printf(char *fmt, ...)
{
    80000a6a:	7119                	addi	sp,sp,-128
    80000a6c:	fc06                	sd	ra,56(sp)
    80000a6e:	f822                	sd	s0,48(sp)
    80000a70:	0080                	addi	s0,sp,64
    80000a72:	fca43423          	sd	a0,-56(s0)
    80000a76:	e40c                	sd	a1,8(s0)
    80000a78:	e810                	sd	a2,16(s0)
    80000a7a:	ec14                	sd	a3,24(s0)
    80000a7c:	f018                	sd	a4,32(s0)
    80000a7e:	f41c                	sd	a5,40(s0)
    80000a80:	03043823          	sd	a6,48(s0)
    80000a84:	03143c23          	sd	a7,56(s0)
  va_list ap;
  int i, c, locking;
  char *s;

  locking = pr.locking;
    80000a88:	00013797          	auipc	a5,0x13
    80000a8c:	03078793          	addi	a5,a5,48 # 80013ab8 <pr>
    80000a90:	4f9c                	lw	a5,24(a5)
    80000a92:	fcf42e23          	sw	a5,-36(s0)
  if(locking)
    80000a96:	fdc42783          	lw	a5,-36(s0)
    80000a9a:	2781                	sext.w	a5,a5
    80000a9c:	cb89                	beqz	a5,80000aae <printf+0x44>
    acquire(&pr.lock);
    80000a9e:	00013517          	auipc	a0,0x13
    80000aa2:	01a50513          	addi	a0,a0,26 # 80013ab8 <pr>
    80000aa6:	00001097          	auipc	ra,0x1
    80000aaa:	81e080e7          	jalr	-2018(ra) # 800012c4 <acquire>

  if (fmt == 0)
    80000aae:	fc843783          	ld	a5,-56(s0)
    80000ab2:	eb89                	bnez	a5,80000ac4 <printf+0x5a>
    panic("null fmt");
    80000ab4:	0000a517          	auipc	a0,0xa
    80000ab8:	55450513          	addi	a0,a0,1364 # 8000b008 <etext+0x8>
    80000abc:	00000097          	auipc	ra,0x0
    80000ac0:	204080e7          	jalr	516(ra) # 80000cc0 <panic>

  va_start(ap, fmt);
    80000ac4:	04040793          	addi	a5,s0,64
    80000ac8:	fcf43023          	sd	a5,-64(s0)
    80000acc:	fc043783          	ld	a5,-64(s0)
    80000ad0:	fc878793          	addi	a5,a5,-56
    80000ad4:	fcf43823          	sd	a5,-48(s0)
  for(i = 0; (c = fmt[i] & 0xff) != 0; i++){
    80000ad8:	fe042623          	sw	zero,-20(s0)
    80000adc:	a24d                	j	80000c7e <printf+0x214>
    if(c != '%'){
    80000ade:	fd842783          	lw	a5,-40(s0)
    80000ae2:	0007871b          	sext.w	a4,a5
    80000ae6:	02500793          	li	a5,37
    80000aea:	00f70a63          	beq	a4,a5,80000afe <printf+0x94>
      consputc(c);
    80000aee:	fd842783          	lw	a5,-40(s0)
    80000af2:	853e                	mv	a0,a5
    80000af4:	00000097          	auipc	ra,0x0
    80000af8:	8c0080e7          	jalr	-1856(ra) # 800003b4 <consputc>
      continue;
    80000afc:	aaa5                	j	80000c74 <printf+0x20a>
    }
    c = fmt[++i] & 0xff;
    80000afe:	fec42783          	lw	a5,-20(s0)
    80000b02:	2785                	addiw	a5,a5,1
    80000b04:	fef42623          	sw	a5,-20(s0)
    80000b08:	fec42783          	lw	a5,-20(s0)
    80000b0c:	fc843703          	ld	a4,-56(s0)
    80000b10:	97ba                	add	a5,a5,a4
    80000b12:	0007c783          	lbu	a5,0(a5)
    80000b16:	fcf42c23          	sw	a5,-40(s0)
    if(c == 0)
    80000b1a:	fd842783          	lw	a5,-40(s0)
    80000b1e:	2781                	sext.w	a5,a5
    80000b20:	16078e63          	beqz	a5,80000c9c <printf+0x232>
      break;
    switch(c){
    80000b24:	fd842783          	lw	a5,-40(s0)
    80000b28:	0007871b          	sext.w	a4,a5
    80000b2c:	07800793          	li	a5,120
    80000b30:	08f70963          	beq	a4,a5,80000bc2 <printf+0x158>
    80000b34:	fd842783          	lw	a5,-40(s0)
    80000b38:	0007871b          	sext.w	a4,a5
    80000b3c:	07800793          	li	a5,120
    80000b40:	10e7cc63          	blt	a5,a4,80000c58 <printf+0x1ee>
    80000b44:	fd842783          	lw	a5,-40(s0)
    80000b48:	0007871b          	sext.w	a4,a5
    80000b4c:	07300793          	li	a5,115
    80000b50:	0af70563          	beq	a4,a5,80000bfa <printf+0x190>
    80000b54:	fd842783          	lw	a5,-40(s0)
    80000b58:	0007871b          	sext.w	a4,a5
    80000b5c:	07300793          	li	a5,115
    80000b60:	0ee7cc63          	blt	a5,a4,80000c58 <printf+0x1ee>
    80000b64:	fd842783          	lw	a5,-40(s0)
    80000b68:	0007871b          	sext.w	a4,a5
    80000b6c:	07000793          	li	a5,112
    80000b70:	06f70863          	beq	a4,a5,80000be0 <printf+0x176>
    80000b74:	fd842783          	lw	a5,-40(s0)
    80000b78:	0007871b          	sext.w	a4,a5
    80000b7c:	07000793          	li	a5,112
    80000b80:	0ce7cc63          	blt	a5,a4,80000c58 <printf+0x1ee>
    80000b84:	fd842783          	lw	a5,-40(s0)
    80000b88:	0007871b          	sext.w	a4,a5
    80000b8c:	02500793          	li	a5,37
    80000b90:	0af70d63          	beq	a4,a5,80000c4a <printf+0x1e0>
    80000b94:	fd842783          	lw	a5,-40(s0)
    80000b98:	0007871b          	sext.w	a4,a5
    80000b9c:	06400793          	li	a5,100
    80000ba0:	0af71c63          	bne	a4,a5,80000c58 <printf+0x1ee>
    case 'd':
      printint(va_arg(ap, int), 10, 1);
    80000ba4:	fd043783          	ld	a5,-48(s0)
    80000ba8:	00878713          	addi	a4,a5,8
    80000bac:	fce43823          	sd	a4,-48(s0)
    80000bb0:	439c                	lw	a5,0(a5)
    80000bb2:	4605                	li	a2,1
    80000bb4:	45a9                	li	a1,10
    80000bb6:	853e                	mv	a0,a5
    80000bb8:	00000097          	auipc	ra,0x0
    80000bbc:	d3c080e7          	jalr	-708(ra) # 800008f4 <printint>
      break;
    80000bc0:	a855                	j	80000c74 <printf+0x20a>
    case 'x':
      printint(va_arg(ap, int), 16, 1);
    80000bc2:	fd043783          	ld	a5,-48(s0)
    80000bc6:	00878713          	addi	a4,a5,8
    80000bca:	fce43823          	sd	a4,-48(s0)
    80000bce:	439c                	lw	a5,0(a5)
    80000bd0:	4605                	li	a2,1
    80000bd2:	45c1                	li	a1,16
    80000bd4:	853e                	mv	a0,a5
    80000bd6:	00000097          	auipc	ra,0x0
    80000bda:	d1e080e7          	jalr	-738(ra) # 800008f4 <printint>
      break;
    80000bde:	a859                	j	80000c74 <printf+0x20a>
    case 'p':
      printptr(va_arg(ap, uint64));
    80000be0:	fd043783          	ld	a5,-48(s0)
    80000be4:	00878713          	addi	a4,a5,8
    80000be8:	fce43823          	sd	a4,-48(s0)
    80000bec:	639c                	ld	a5,0(a5)
    80000bee:	853e                	mv	a0,a5
    80000bf0:	00000097          	auipc	ra,0x0
    80000bf4:	e06080e7          	jalr	-506(ra) # 800009f6 <printptr>
      break;
    80000bf8:	a8b5                	j	80000c74 <printf+0x20a>
    case 's':
      if((s = va_arg(ap, char*)) == 0)
    80000bfa:	fd043783          	ld	a5,-48(s0)
    80000bfe:	00878713          	addi	a4,a5,8
    80000c02:	fce43823          	sd	a4,-48(s0)
    80000c06:	639c                	ld	a5,0(a5)
    80000c08:	fef43023          	sd	a5,-32(s0)
    80000c0c:	fe043783          	ld	a5,-32(s0)
    80000c10:	e79d                	bnez	a5,80000c3e <printf+0x1d4>
        s = "(null)";
    80000c12:	0000a797          	auipc	a5,0xa
    80000c16:	40678793          	addi	a5,a5,1030 # 8000b018 <etext+0x18>
    80000c1a:	fef43023          	sd	a5,-32(s0)
      for(; *s; s++)
    80000c1e:	a005                	j	80000c3e <printf+0x1d4>
        consputc(*s);
    80000c20:	fe043783          	ld	a5,-32(s0)
    80000c24:	0007c783          	lbu	a5,0(a5)
    80000c28:	2781                	sext.w	a5,a5
    80000c2a:	853e                	mv	a0,a5
    80000c2c:	fffff097          	auipc	ra,0xfffff
    80000c30:	788080e7          	jalr	1928(ra) # 800003b4 <consputc>
      for(; *s; s++)
    80000c34:	fe043783          	ld	a5,-32(s0)
    80000c38:	0785                	addi	a5,a5,1
    80000c3a:	fef43023          	sd	a5,-32(s0)
    80000c3e:	fe043783          	ld	a5,-32(s0)
    80000c42:	0007c783          	lbu	a5,0(a5)
    80000c46:	ffe9                	bnez	a5,80000c20 <printf+0x1b6>
      break;
    80000c48:	a035                	j	80000c74 <printf+0x20a>
    case '%':
      consputc('%');
    80000c4a:	02500513          	li	a0,37
    80000c4e:	fffff097          	auipc	ra,0xfffff
    80000c52:	766080e7          	jalr	1894(ra) # 800003b4 <consputc>
      break;
    80000c56:	a839                	j	80000c74 <printf+0x20a>
    default:
      // Print unknown % sequence to draw attention.
      consputc('%');
    80000c58:	02500513          	li	a0,37
    80000c5c:	fffff097          	auipc	ra,0xfffff
    80000c60:	758080e7          	jalr	1880(ra) # 800003b4 <consputc>
      consputc(c);
    80000c64:	fd842783          	lw	a5,-40(s0)
    80000c68:	853e                	mv	a0,a5
    80000c6a:	fffff097          	auipc	ra,0xfffff
    80000c6e:	74a080e7          	jalr	1866(ra) # 800003b4 <consputc>
      break;
    80000c72:	0001                	nop
  for(i = 0; (c = fmt[i] & 0xff) != 0; i++){
    80000c74:	fec42783          	lw	a5,-20(s0)
    80000c78:	2785                	addiw	a5,a5,1
    80000c7a:	fef42623          	sw	a5,-20(s0)
    80000c7e:	fec42783          	lw	a5,-20(s0)
    80000c82:	fc843703          	ld	a4,-56(s0)
    80000c86:	97ba                	add	a5,a5,a4
    80000c88:	0007c783          	lbu	a5,0(a5)
    80000c8c:	fcf42c23          	sw	a5,-40(s0)
    80000c90:	fd842783          	lw	a5,-40(s0)
    80000c94:	2781                	sext.w	a5,a5
    80000c96:	e40794e3          	bnez	a5,80000ade <printf+0x74>
    80000c9a:	a011                	j	80000c9e <printf+0x234>
      break;
    80000c9c:	0001                	nop
    }
  }
  va_end(ap);

  if(locking)
    80000c9e:	fdc42783          	lw	a5,-36(s0)
    80000ca2:	2781                	sext.w	a5,a5
    80000ca4:	cb89                	beqz	a5,80000cb6 <printf+0x24c>
    release(&pr.lock);
    80000ca6:	00013517          	auipc	a0,0x13
    80000caa:	e1250513          	addi	a0,a0,-494 # 80013ab8 <pr>
    80000cae:	00000097          	auipc	ra,0x0
    80000cb2:	67a080e7          	jalr	1658(ra) # 80001328 <release>
}
    80000cb6:	0001                	nop
    80000cb8:	70e2                	ld	ra,56(sp)
    80000cba:	7442                	ld	s0,48(sp)
    80000cbc:	6109                	addi	sp,sp,128
    80000cbe:	8082                	ret

0000000080000cc0 <panic>:

void
panic(char *s)
{
    80000cc0:	1101                	addi	sp,sp,-32
    80000cc2:	ec06                	sd	ra,24(sp)
    80000cc4:	e822                	sd	s0,16(sp)
    80000cc6:	1000                	addi	s0,sp,32
    80000cc8:	fea43423          	sd	a0,-24(s0)
  pr.locking = 0;
    80000ccc:	00013797          	auipc	a5,0x13
    80000cd0:	dec78793          	addi	a5,a5,-532 # 80013ab8 <pr>
    80000cd4:	0007ac23          	sw	zero,24(a5)
  printf("panic: ");
    80000cd8:	0000a517          	auipc	a0,0xa
    80000cdc:	34850513          	addi	a0,a0,840 # 8000b020 <etext+0x20>
    80000ce0:	00000097          	auipc	ra,0x0
    80000ce4:	d8a080e7          	jalr	-630(ra) # 80000a6a <printf>
  printf(s);
    80000ce8:	fe843503          	ld	a0,-24(s0)
    80000cec:	00000097          	auipc	ra,0x0
    80000cf0:	d7e080e7          	jalr	-642(ra) # 80000a6a <printf>
  printf("\n");
    80000cf4:	0000a517          	auipc	a0,0xa
    80000cf8:	33450513          	addi	a0,a0,820 # 8000b028 <etext+0x28>
    80000cfc:	00000097          	auipc	ra,0x0
    80000d00:	d6e080e7          	jalr	-658(ra) # 80000a6a <printf>
  panicked = 1; // freeze uart output from other CPUs
    80000d04:	0000b797          	auipc	a5,0xb
    80000d08:	b9c78793          	addi	a5,a5,-1124 # 8000b8a0 <panicked>
    80000d0c:	4705                	li	a4,1
    80000d0e:	c398                	sw	a4,0(a5)
  for(;;)
    80000d10:	0001                	nop
    80000d12:	bffd                	j	80000d10 <panic+0x50>

0000000080000d14 <printfinit>:
    ;
}

void
printfinit(void)
{
    80000d14:	1141                	addi	sp,sp,-16
    80000d16:	e406                	sd	ra,8(sp)
    80000d18:	e022                	sd	s0,0(sp)
    80000d1a:	0800                	addi	s0,sp,16
  initlock(&pr.lock, "pr");
    80000d1c:	0000a597          	auipc	a1,0xa
    80000d20:	31458593          	addi	a1,a1,788 # 8000b030 <etext+0x30>
    80000d24:	00013517          	auipc	a0,0x13
    80000d28:	d9450513          	addi	a0,a0,-620 # 80013ab8 <pr>
    80000d2c:	00000097          	auipc	ra,0x0
    80000d30:	564080e7          	jalr	1380(ra) # 80001290 <initlock>
  pr.locking = 1;
    80000d34:	00013797          	auipc	a5,0x13
    80000d38:	d8478793          	addi	a5,a5,-636 # 80013ab8 <pr>
    80000d3c:	4705                	li	a4,1
    80000d3e:	cf98                	sw	a4,24(a5)
}
    80000d40:	0001                	nop
    80000d42:	60a2                	ld	ra,8(sp)
    80000d44:	6402                	ld	s0,0(sp)
    80000d46:	0141                	addi	sp,sp,16
    80000d48:	8082                	ret

0000000080000d4a <uartinit>:

void uartstart();

void
uartinit(void)
{
    80000d4a:	1141                	addi	sp,sp,-16
    80000d4c:	e406                	sd	ra,8(sp)
    80000d4e:	e022                	sd	s0,0(sp)
    80000d50:	0800                	addi	s0,sp,16
  // disable interrupts.
  WriteReg(IER, 0x00);
    80000d52:	100007b7          	lui	a5,0x10000
    80000d56:	0785                	addi	a5,a5,1 # 10000001 <_entry-0x6fffffff>
    80000d58:	00078023          	sb	zero,0(a5)

  // special mode to set baud rate.
  WriteReg(LCR, LCR_BAUD_LATCH);
    80000d5c:	100007b7          	lui	a5,0x10000
    80000d60:	078d                	addi	a5,a5,3 # 10000003 <_entry-0x6ffffffd>
    80000d62:	f8000713          	li	a4,-128
    80000d66:	00e78023          	sb	a4,0(a5)

  // LSB for baud rate of 38.4K.
  WriteReg(0, 0x03);
    80000d6a:	100007b7          	lui	a5,0x10000
    80000d6e:	470d                	li	a4,3
    80000d70:	00e78023          	sb	a4,0(a5) # 10000000 <_entry-0x70000000>

  // MSB for baud rate of 38.4K.
  WriteReg(1, 0x00);
    80000d74:	100007b7          	lui	a5,0x10000
    80000d78:	0785                	addi	a5,a5,1 # 10000001 <_entry-0x6fffffff>
    80000d7a:	00078023          	sb	zero,0(a5)

  // leave set-baud mode,
  // and set word length to 8 bits, no parity.
  WriteReg(LCR, LCR_EIGHT_BITS);
    80000d7e:	100007b7          	lui	a5,0x10000
    80000d82:	078d                	addi	a5,a5,3 # 10000003 <_entry-0x6ffffffd>
    80000d84:	470d                	li	a4,3
    80000d86:	00e78023          	sb	a4,0(a5)

  // reset and enable FIFOs.
  WriteReg(FCR, FCR_FIFO_ENABLE | FCR_FIFO_CLEAR);
    80000d8a:	100007b7          	lui	a5,0x10000
    80000d8e:	0789                	addi	a5,a5,2 # 10000002 <_entry-0x6ffffffe>
    80000d90:	471d                	li	a4,7
    80000d92:	00e78023          	sb	a4,0(a5)

  // enable transmit and receive interrupts.
  WriteReg(IER, IER_TX_ENABLE | IER_RX_ENABLE);
    80000d96:	100007b7          	lui	a5,0x10000
    80000d9a:	0785                	addi	a5,a5,1 # 10000001 <_entry-0x6fffffff>
    80000d9c:	470d                	li	a4,3
    80000d9e:	00e78023          	sb	a4,0(a5)

  initlock(&uart_tx_lock, "uart");
    80000da2:	0000a597          	auipc	a1,0xa
    80000da6:	29658593          	addi	a1,a1,662 # 8000b038 <etext+0x38>
    80000daa:	00013517          	auipc	a0,0x13
    80000dae:	d2e50513          	addi	a0,a0,-722 # 80013ad8 <uart_tx_lock>
    80000db2:	00000097          	auipc	ra,0x0
    80000db6:	4de080e7          	jalr	1246(ra) # 80001290 <initlock>
}
    80000dba:	0001                	nop
    80000dbc:	60a2                	ld	ra,8(sp)
    80000dbe:	6402                	ld	s0,0(sp)
    80000dc0:	0141                	addi	sp,sp,16
    80000dc2:	8082                	ret

0000000080000dc4 <uartputc>:
// because it may block, it can't be called
// from interrupts; it's only suitable for use
// by write().
void
uartputc(int c)
{
    80000dc4:	1101                	addi	sp,sp,-32
    80000dc6:	ec06                	sd	ra,24(sp)
    80000dc8:	e822                	sd	s0,16(sp)
    80000dca:	1000                	addi	s0,sp,32
    80000dcc:	87aa                	mv	a5,a0
    80000dce:	fef42623          	sw	a5,-20(s0)
  acquire(&uart_tx_lock);
    80000dd2:	00013517          	auipc	a0,0x13
    80000dd6:	d0650513          	addi	a0,a0,-762 # 80013ad8 <uart_tx_lock>
    80000dda:	00000097          	auipc	ra,0x0
    80000dde:	4ea080e7          	jalr	1258(ra) # 800012c4 <acquire>

  if(panicked){
    80000de2:	0000b797          	auipc	a5,0xb
    80000de6:	abe78793          	addi	a5,a5,-1346 # 8000b8a0 <panicked>
    80000dea:	439c                	lw	a5,0(a5)
    80000dec:	2781                	sext.w	a5,a5
    80000dee:	cf99                	beqz	a5,80000e0c <uartputc+0x48>
    for(;;)
    80000df0:	0001                	nop
    80000df2:	bffd                	j	80000df0 <uartputc+0x2c>
      ;
  }
  while(uart_tx_w == uart_tx_r + UART_TX_BUF_SIZE){
    // buffer is full.
    // wait for uartstart() to open up space in the buffer.
    sleep(&uart_tx_r, &uart_tx_lock);
    80000df4:	00013597          	auipc	a1,0x13
    80000df8:	ce458593          	addi	a1,a1,-796 # 80013ad8 <uart_tx_lock>
    80000dfc:	0000b517          	auipc	a0,0xb
    80000e00:	ab450513          	addi	a0,a0,-1356 # 8000b8b0 <uart_tx_r>
    80000e04:	00002097          	auipc	ra,0x2
    80000e08:	672080e7          	jalr	1650(ra) # 80003476 <sleep>
  while(uart_tx_w == uart_tx_r + UART_TX_BUF_SIZE){
    80000e0c:	0000b797          	auipc	a5,0xb
    80000e10:	aa478793          	addi	a5,a5,-1372 # 8000b8b0 <uart_tx_r>
    80000e14:	639c                	ld	a5,0(a5)
    80000e16:	02078713          	addi	a4,a5,32
    80000e1a:	0000b797          	auipc	a5,0xb
    80000e1e:	a8e78793          	addi	a5,a5,-1394 # 8000b8a8 <uart_tx_w>
    80000e22:	639c                	ld	a5,0(a5)
    80000e24:	fcf708e3          	beq	a4,a5,80000df4 <uartputc+0x30>
  }
  uart_tx_buf[uart_tx_w % UART_TX_BUF_SIZE] = c;
    80000e28:	0000b797          	auipc	a5,0xb
    80000e2c:	a8078793          	addi	a5,a5,-1408 # 8000b8a8 <uart_tx_w>
    80000e30:	639c                	ld	a5,0(a5)
    80000e32:	8bfd                	andi	a5,a5,31
    80000e34:	fec42703          	lw	a4,-20(s0)
    80000e38:	0ff77713          	zext.b	a4,a4
    80000e3c:	00013697          	auipc	a3,0x13
    80000e40:	cb468693          	addi	a3,a3,-844 # 80013af0 <uart_tx_buf>
    80000e44:	97b6                	add	a5,a5,a3
    80000e46:	00e78023          	sb	a4,0(a5)
  uart_tx_w += 1;
    80000e4a:	0000b797          	auipc	a5,0xb
    80000e4e:	a5e78793          	addi	a5,a5,-1442 # 8000b8a8 <uart_tx_w>
    80000e52:	639c                	ld	a5,0(a5)
    80000e54:	00178713          	addi	a4,a5,1
    80000e58:	0000b797          	auipc	a5,0xb
    80000e5c:	a5078793          	addi	a5,a5,-1456 # 8000b8a8 <uart_tx_w>
    80000e60:	e398                	sd	a4,0(a5)
  uartstart();
    80000e62:	00000097          	auipc	ra,0x0
    80000e66:	086080e7          	jalr	134(ra) # 80000ee8 <uartstart>
  release(&uart_tx_lock);
    80000e6a:	00013517          	auipc	a0,0x13
    80000e6e:	c6e50513          	addi	a0,a0,-914 # 80013ad8 <uart_tx_lock>
    80000e72:	00000097          	auipc	ra,0x0
    80000e76:	4b6080e7          	jalr	1206(ra) # 80001328 <release>
}
    80000e7a:	0001                	nop
    80000e7c:	60e2                	ld	ra,24(sp)
    80000e7e:	6442                	ld	s0,16(sp)
    80000e80:	6105                	addi	sp,sp,32
    80000e82:	8082                	ret

0000000080000e84 <uartputc_sync>:
// use interrupts, for use by kernel printf() and
// to echo characters. it spins waiting for the uart's
// output register to be empty.
void
uartputc_sync(int c)
{
    80000e84:	1101                	addi	sp,sp,-32
    80000e86:	ec06                	sd	ra,24(sp)
    80000e88:	e822                	sd	s0,16(sp)
    80000e8a:	1000                	addi	s0,sp,32
    80000e8c:	87aa                	mv	a5,a0
    80000e8e:	fef42623          	sw	a5,-20(s0)
  push_off();
    80000e92:	00000097          	auipc	ra,0x0
    80000e96:	530080e7          	jalr	1328(ra) # 800013c2 <push_off>

  if(panicked){
    80000e9a:	0000b797          	auipc	a5,0xb
    80000e9e:	a0678793          	addi	a5,a5,-1530 # 8000b8a0 <panicked>
    80000ea2:	439c                	lw	a5,0(a5)
    80000ea4:	2781                	sext.w	a5,a5
    80000ea6:	c399                	beqz	a5,80000eac <uartputc_sync+0x28>
    for(;;)
    80000ea8:	0001                	nop
    80000eaa:	bffd                	j	80000ea8 <uartputc_sync+0x24>
      ;
  }

  // wait for Transmit Holding Empty to be set in LSR.
  while((ReadReg(LSR) & LSR_TX_IDLE) == 0)
    80000eac:	0001                	nop
    80000eae:	100007b7          	lui	a5,0x10000
    80000eb2:	0795                	addi	a5,a5,5 # 10000005 <_entry-0x6ffffffb>
    80000eb4:	0007c783          	lbu	a5,0(a5)
    80000eb8:	0ff7f793          	zext.b	a5,a5
    80000ebc:	2781                	sext.w	a5,a5
    80000ebe:	0207f793          	andi	a5,a5,32
    80000ec2:	2781                	sext.w	a5,a5
    80000ec4:	d7ed                	beqz	a5,80000eae <uartputc_sync+0x2a>
    ;
  WriteReg(THR, c);
    80000ec6:	100007b7          	lui	a5,0x10000
    80000eca:	fec42703          	lw	a4,-20(s0)
    80000ece:	0ff77713          	zext.b	a4,a4
    80000ed2:	00e78023          	sb	a4,0(a5) # 10000000 <_entry-0x70000000>

  pop_off();
    80000ed6:	00000097          	auipc	ra,0x0
    80000eda:	544080e7          	jalr	1348(ra) # 8000141a <pop_off>
}
    80000ede:	0001                	nop
    80000ee0:	60e2                	ld	ra,24(sp)
    80000ee2:	6442                	ld	s0,16(sp)
    80000ee4:	6105                	addi	sp,sp,32
    80000ee6:	8082                	ret

0000000080000ee8 <uartstart>:
// in the transmit buffer, send it.
// caller must hold uart_tx_lock.
// called from both the top- and bottom-half.
void
uartstart()
{
    80000ee8:	1101                	addi	sp,sp,-32
    80000eea:	ec06                	sd	ra,24(sp)
    80000eec:	e822                	sd	s0,16(sp)
    80000eee:	1000                	addi	s0,sp,32
  while(1){
    if(uart_tx_w == uart_tx_r){
    80000ef0:	0000b797          	auipc	a5,0xb
    80000ef4:	9b878793          	addi	a5,a5,-1608 # 8000b8a8 <uart_tx_w>
    80000ef8:	6398                	ld	a4,0(a5)
    80000efa:	0000b797          	auipc	a5,0xb
    80000efe:	9b678793          	addi	a5,a5,-1610 # 8000b8b0 <uart_tx_r>
    80000f02:	639c                	ld	a5,0(a5)
    80000f04:	06f70a63          	beq	a4,a5,80000f78 <uartstart+0x90>
      // transmit buffer is empty.
      return;
    }
    
    if((ReadReg(LSR) & LSR_TX_IDLE) == 0){
    80000f08:	100007b7          	lui	a5,0x10000
    80000f0c:	0795                	addi	a5,a5,5 # 10000005 <_entry-0x6ffffffb>
    80000f0e:	0007c783          	lbu	a5,0(a5)
    80000f12:	0ff7f793          	zext.b	a5,a5
    80000f16:	2781                	sext.w	a5,a5
    80000f18:	0207f793          	andi	a5,a5,32
    80000f1c:	2781                	sext.w	a5,a5
    80000f1e:	cfb9                	beqz	a5,80000f7c <uartstart+0x94>
      // so we cannot give it another byte.
      // it will interrupt when it's ready for a new byte.
      return;
    }
    
    int c = uart_tx_buf[uart_tx_r % UART_TX_BUF_SIZE];
    80000f20:	0000b797          	auipc	a5,0xb
    80000f24:	99078793          	addi	a5,a5,-1648 # 8000b8b0 <uart_tx_r>
    80000f28:	639c                	ld	a5,0(a5)
    80000f2a:	8bfd                	andi	a5,a5,31
    80000f2c:	00013717          	auipc	a4,0x13
    80000f30:	bc470713          	addi	a4,a4,-1084 # 80013af0 <uart_tx_buf>
    80000f34:	97ba                	add	a5,a5,a4
    80000f36:	0007c783          	lbu	a5,0(a5)
    80000f3a:	fef42623          	sw	a5,-20(s0)
    uart_tx_r += 1;
    80000f3e:	0000b797          	auipc	a5,0xb
    80000f42:	97278793          	addi	a5,a5,-1678 # 8000b8b0 <uart_tx_r>
    80000f46:	639c                	ld	a5,0(a5)
    80000f48:	00178713          	addi	a4,a5,1
    80000f4c:	0000b797          	auipc	a5,0xb
    80000f50:	96478793          	addi	a5,a5,-1692 # 8000b8b0 <uart_tx_r>
    80000f54:	e398                	sd	a4,0(a5)
    
    // maybe uartputc() is waiting for space in the buffer.
    wakeup(&uart_tx_r);
    80000f56:	0000b517          	auipc	a0,0xb
    80000f5a:	95a50513          	addi	a0,a0,-1702 # 8000b8b0 <uart_tx_r>
    80000f5e:	00002097          	auipc	ra,0x2
    80000f62:	594080e7          	jalr	1428(ra) # 800034f2 <wakeup>
    
    WriteReg(THR, c);
    80000f66:	100007b7          	lui	a5,0x10000
    80000f6a:	fec42703          	lw	a4,-20(s0)
    80000f6e:	0ff77713          	zext.b	a4,a4
    80000f72:	00e78023          	sb	a4,0(a5) # 10000000 <_entry-0x70000000>
  while(1){
    80000f76:	bfad                	j	80000ef0 <uartstart+0x8>
      return;
    80000f78:	0001                	nop
    80000f7a:	a011                	j	80000f7e <uartstart+0x96>
      return;
    80000f7c:	0001                	nop
  }
}
    80000f7e:	60e2                	ld	ra,24(sp)
    80000f80:	6442                	ld	s0,16(sp)
    80000f82:	6105                	addi	sp,sp,32
    80000f84:	8082                	ret

0000000080000f86 <uartgetc>:

// read one input character from the UART.
// return -1 if none is waiting.
int
uartgetc(void)
{
    80000f86:	1141                	addi	sp,sp,-16
    80000f88:	e406                	sd	ra,8(sp)
    80000f8a:	e022                	sd	s0,0(sp)
    80000f8c:	0800                	addi	s0,sp,16
  if(ReadReg(LSR) & 0x01){
    80000f8e:	100007b7          	lui	a5,0x10000
    80000f92:	0795                	addi	a5,a5,5 # 10000005 <_entry-0x6ffffffb>
    80000f94:	0007c783          	lbu	a5,0(a5)
    80000f98:	0ff7f793          	zext.b	a5,a5
    80000f9c:	2781                	sext.w	a5,a5
    80000f9e:	8b85                	andi	a5,a5,1
    80000fa0:	2781                	sext.w	a5,a5
    80000fa2:	cb89                	beqz	a5,80000fb4 <uartgetc+0x2e>
    // input data is ready.
    return ReadReg(RHR);
    80000fa4:	100007b7          	lui	a5,0x10000
    80000fa8:	0007c783          	lbu	a5,0(a5) # 10000000 <_entry-0x70000000>
    80000fac:	0ff7f793          	zext.b	a5,a5
    80000fb0:	2781                	sext.w	a5,a5
    80000fb2:	a011                	j	80000fb6 <uartgetc+0x30>
  } else {
    return -1;
    80000fb4:	57fd                	li	a5,-1
  }
}
    80000fb6:	853e                	mv	a0,a5
    80000fb8:	60a2                	ld	ra,8(sp)
    80000fba:	6402                	ld	s0,0(sp)
    80000fbc:	0141                	addi	sp,sp,16
    80000fbe:	8082                	ret

0000000080000fc0 <uartintr>:
// handle a uart interrupt, raised because input has
// arrived, or the uart is ready for more output, or
// both. called from devintr().
void
uartintr(void)
{
    80000fc0:	1101                	addi	sp,sp,-32
    80000fc2:	ec06                	sd	ra,24(sp)
    80000fc4:	e822                	sd	s0,16(sp)
    80000fc6:	1000                	addi	s0,sp,32
  // read and process incoming characters.
  while(1){
    int c = uartgetc();
    80000fc8:	00000097          	auipc	ra,0x0
    80000fcc:	fbe080e7          	jalr	-66(ra) # 80000f86 <uartgetc>
    80000fd0:	87aa                	mv	a5,a0
    80000fd2:	fef42623          	sw	a5,-20(s0)
    if(c == -1)
    80000fd6:	fec42783          	lw	a5,-20(s0)
    80000fda:	0007871b          	sext.w	a4,a5
    80000fde:	57fd                	li	a5,-1
    80000fe0:	00f70a63          	beq	a4,a5,80000ff4 <uartintr+0x34>
      break;
    consoleintr(c);
    80000fe4:	fec42783          	lw	a5,-20(s0)
    80000fe8:	853e                	mv	a0,a5
    80000fea:	fffff097          	auipc	ra,0xfffff
    80000fee:	648080e7          	jalr	1608(ra) # 80000632 <consoleintr>
  while(1){
    80000ff2:	bfd9                	j	80000fc8 <uartintr+0x8>
      break;
    80000ff4:	0001                	nop
  }

  // send buffered characters.
  acquire(&uart_tx_lock);
    80000ff6:	00013517          	auipc	a0,0x13
    80000ffa:	ae250513          	addi	a0,a0,-1310 # 80013ad8 <uart_tx_lock>
    80000ffe:	00000097          	auipc	ra,0x0
    80001002:	2c6080e7          	jalr	710(ra) # 800012c4 <acquire>
  uartstart();
    80001006:	00000097          	auipc	ra,0x0
    8000100a:	ee2080e7          	jalr	-286(ra) # 80000ee8 <uartstart>
  release(&uart_tx_lock);
    8000100e:	00013517          	auipc	a0,0x13
    80001012:	aca50513          	addi	a0,a0,-1334 # 80013ad8 <uart_tx_lock>
    80001016:	00000097          	auipc	ra,0x0
    8000101a:	312080e7          	jalr	786(ra) # 80001328 <release>
}
    8000101e:	0001                	nop
    80001020:	60e2                	ld	ra,24(sp)
    80001022:	6442                	ld	s0,16(sp)
    80001024:	6105                	addi	sp,sp,32
    80001026:	8082                	ret

0000000080001028 <kinit>:
  struct run *freelist;
} kmem;

void
kinit()
{
    80001028:	1141                	addi	sp,sp,-16
    8000102a:	e406                	sd	ra,8(sp)
    8000102c:	e022                	sd	s0,0(sp)
    8000102e:	0800                	addi	s0,sp,16
  initlock(&kmem.lock, "kmem");
    80001030:	0000a597          	auipc	a1,0xa
    80001034:	01058593          	addi	a1,a1,16 # 8000b040 <etext+0x40>
    80001038:	00013517          	auipc	a0,0x13
    8000103c:	ad850513          	addi	a0,a0,-1320 # 80013b10 <kmem>
    80001040:	00000097          	auipc	ra,0x0
    80001044:	250080e7          	jalr	592(ra) # 80001290 <initlock>
  freerange(end, (void*)PHYSTOP);
    80001048:	47c5                	li	a5,17
    8000104a:	01b79593          	slli	a1,a5,0x1b
    8000104e:	00024517          	auipc	a0,0x24
    80001052:	cfa50513          	addi	a0,a0,-774 # 80024d48 <end>
    80001056:	00000097          	auipc	ra,0x0
    8000105a:	012080e7          	jalr	18(ra) # 80001068 <freerange>
}
    8000105e:	0001                	nop
    80001060:	60a2                	ld	ra,8(sp)
    80001062:	6402                	ld	s0,0(sp)
    80001064:	0141                	addi	sp,sp,16
    80001066:	8082                	ret

0000000080001068 <freerange>:

void
freerange(void *pa_start, void *pa_end)
{
    80001068:	7179                	addi	sp,sp,-48
    8000106a:	f406                	sd	ra,40(sp)
    8000106c:	f022                	sd	s0,32(sp)
    8000106e:	1800                	addi	s0,sp,48
    80001070:	fca43c23          	sd	a0,-40(s0)
    80001074:	fcb43823          	sd	a1,-48(s0)
  char *p;
  p = (char*)PGROUNDUP((uint64)pa_start);
    80001078:	fd843703          	ld	a4,-40(s0)
    8000107c:	6785                	lui	a5,0x1
    8000107e:	17fd                	addi	a5,a5,-1 # fff <_entry-0x7ffff001>
    80001080:	973e                	add	a4,a4,a5
    80001082:	77fd                	lui	a5,0xfffff
    80001084:	8ff9                	and	a5,a5,a4
    80001086:	fef43423          	sd	a5,-24(s0)
  for(; p + PGSIZE <= (char*)pa_end; p += PGSIZE)
    8000108a:	a829                	j	800010a4 <freerange+0x3c>
    kfree(p);
    8000108c:	fe843503          	ld	a0,-24(s0)
    80001090:	00000097          	auipc	ra,0x0
    80001094:	030080e7          	jalr	48(ra) # 800010c0 <kfree>
  for(; p + PGSIZE <= (char*)pa_end; p += PGSIZE)
    80001098:	fe843703          	ld	a4,-24(s0)
    8000109c:	6785                	lui	a5,0x1
    8000109e:	97ba                	add	a5,a5,a4
    800010a0:	fef43423          	sd	a5,-24(s0)
    800010a4:	fe843703          	ld	a4,-24(s0)
    800010a8:	6785                	lui	a5,0x1
    800010aa:	97ba                	add	a5,a5,a4
    800010ac:	fd043703          	ld	a4,-48(s0)
    800010b0:	fcf77ee3          	bgeu	a4,a5,8000108c <freerange+0x24>
}
    800010b4:	0001                	nop
    800010b6:	0001                	nop
    800010b8:	70a2                	ld	ra,40(sp)
    800010ba:	7402                	ld	s0,32(sp)
    800010bc:	6145                	addi	sp,sp,48
    800010be:	8082                	ret

00000000800010c0 <kfree>:
// which normally should have been returned by a
// call to kalloc().  (The exception is when
// initializing the allocator; see kinit above.)
void
kfree(void *pa)
{
    800010c0:	7179                	addi	sp,sp,-48
    800010c2:	f406                	sd	ra,40(sp)
    800010c4:	f022                	sd	s0,32(sp)
    800010c6:	1800                	addi	s0,sp,48
    800010c8:	fca43c23          	sd	a0,-40(s0)
  struct run *r;

  if(((uint64)pa % PGSIZE) != 0 || (char*)pa < end || (uint64)pa >= PHYSTOP)
    800010cc:	fd843703          	ld	a4,-40(s0)
    800010d0:	6785                	lui	a5,0x1
    800010d2:	17fd                	addi	a5,a5,-1 # fff <_entry-0x7ffff001>
    800010d4:	8ff9                	and	a5,a5,a4
    800010d6:	ef99                	bnez	a5,800010f4 <kfree+0x34>
    800010d8:	fd843703          	ld	a4,-40(s0)
    800010dc:	00024797          	auipc	a5,0x24
    800010e0:	c6c78793          	addi	a5,a5,-916 # 80024d48 <end>
    800010e4:	00f76863          	bltu	a4,a5,800010f4 <kfree+0x34>
    800010e8:	fd843703          	ld	a4,-40(s0)
    800010ec:	47c5                	li	a5,17
    800010ee:	07ee                	slli	a5,a5,0x1b
    800010f0:	00f76a63          	bltu	a4,a5,80001104 <kfree+0x44>
    panic("kfree");
    800010f4:	0000a517          	auipc	a0,0xa
    800010f8:	f5450513          	addi	a0,a0,-172 # 8000b048 <etext+0x48>
    800010fc:	00000097          	auipc	ra,0x0
    80001100:	bc4080e7          	jalr	-1084(ra) # 80000cc0 <panic>

  // Fill with junk to catch dangling refs.
  memset(pa, 1, PGSIZE);
    80001104:	6605                	lui	a2,0x1
    80001106:	4585                	li	a1,1
    80001108:	fd843503          	ld	a0,-40(s0)
    8000110c:	00000097          	auipc	ra,0x0
    80001110:	38c080e7          	jalr	908(ra) # 80001498 <memset>

  r = (struct run*)pa;
    80001114:	fd843783          	ld	a5,-40(s0)
    80001118:	fef43423          	sd	a5,-24(s0)

  acquire(&kmem.lock);
    8000111c:	00013517          	auipc	a0,0x13
    80001120:	9f450513          	addi	a0,a0,-1548 # 80013b10 <kmem>
    80001124:	00000097          	auipc	ra,0x0
    80001128:	1a0080e7          	jalr	416(ra) # 800012c4 <acquire>
  r->next = kmem.freelist;
    8000112c:	00013797          	auipc	a5,0x13
    80001130:	9e478793          	addi	a5,a5,-1564 # 80013b10 <kmem>
    80001134:	6f98                	ld	a4,24(a5)
    80001136:	fe843783          	ld	a5,-24(s0)
    8000113a:	e398                	sd	a4,0(a5)
  kmem.freelist = r;
    8000113c:	00013797          	auipc	a5,0x13
    80001140:	9d478793          	addi	a5,a5,-1580 # 80013b10 <kmem>
    80001144:	fe843703          	ld	a4,-24(s0)
    80001148:	ef98                	sd	a4,24(a5)
  release(&kmem.lock);
    8000114a:	00013517          	auipc	a0,0x13
    8000114e:	9c650513          	addi	a0,a0,-1594 # 80013b10 <kmem>
    80001152:	00000097          	auipc	ra,0x0
    80001156:	1d6080e7          	jalr	470(ra) # 80001328 <release>
}
    8000115a:	0001                	nop
    8000115c:	70a2                	ld	ra,40(sp)
    8000115e:	7402                	ld	s0,32(sp)
    80001160:	6145                	addi	sp,sp,48
    80001162:	8082                	ret

0000000080001164 <kalloc>:
// Allocate one 4096-byte page of physical memory.
// Returns a pointer that the kernel can use.
// Returns 0 if the memory cannot be allocated.
void *
kalloc(void)
{
    80001164:	1101                	addi	sp,sp,-32
    80001166:	ec06                	sd	ra,24(sp)
    80001168:	e822                	sd	s0,16(sp)
    8000116a:	1000                	addi	s0,sp,32
  struct run *r;

  acquire(&kmem.lock);
    8000116c:	00013517          	auipc	a0,0x13
    80001170:	9a450513          	addi	a0,a0,-1628 # 80013b10 <kmem>
    80001174:	00000097          	auipc	ra,0x0
    80001178:	150080e7          	jalr	336(ra) # 800012c4 <acquire>
  r = kmem.freelist;
    8000117c:	00013797          	auipc	a5,0x13
    80001180:	99478793          	addi	a5,a5,-1644 # 80013b10 <kmem>
    80001184:	6f9c                	ld	a5,24(a5)
    80001186:	fef43423          	sd	a5,-24(s0)
  if(r)
    8000118a:	fe843783          	ld	a5,-24(s0)
    8000118e:	cb89                	beqz	a5,800011a0 <kalloc+0x3c>
    kmem.freelist = r->next;
    80001190:	fe843783          	ld	a5,-24(s0)
    80001194:	6398                	ld	a4,0(a5)
    80001196:	00013797          	auipc	a5,0x13
    8000119a:	97a78793          	addi	a5,a5,-1670 # 80013b10 <kmem>
    8000119e:	ef98                	sd	a4,24(a5)
  release(&kmem.lock);
    800011a0:	00013517          	auipc	a0,0x13
    800011a4:	97050513          	addi	a0,a0,-1680 # 80013b10 <kmem>
    800011a8:	00000097          	auipc	ra,0x0
    800011ac:	180080e7          	jalr	384(ra) # 80001328 <release>

  if(r)
    800011b0:	fe843783          	ld	a5,-24(s0)
    800011b4:	cb89                	beqz	a5,800011c6 <kalloc+0x62>
    memset((char*)r, 5, PGSIZE); // fill with junk
    800011b6:	6605                	lui	a2,0x1
    800011b8:	4595                	li	a1,5
    800011ba:	fe843503          	ld	a0,-24(s0)
    800011be:	00000097          	auipc	ra,0x0
    800011c2:	2da080e7          	jalr	730(ra) # 80001498 <memset>
  return (void*)r;
    800011c6:	fe843783          	ld	a5,-24(s0)
}
    800011ca:	853e                	mv	a0,a5
    800011cc:	60e2                	ld	ra,24(sp)
    800011ce:	6442                	ld	s0,16(sp)
    800011d0:	6105                	addi	sp,sp,32
    800011d2:	8082                	ret

00000000800011d4 <r_sstatus>:
{
    800011d4:	1101                	addi	sp,sp,-32
    800011d6:	ec06                	sd	ra,24(sp)
    800011d8:	e822                	sd	s0,16(sp)
    800011da:	1000                	addi	s0,sp,32
  asm volatile("csrr %0, sstatus" : "=r" (x) );
    800011dc:	100027f3          	csrr	a5,sstatus
    800011e0:	fef43423          	sd	a5,-24(s0)
  return x;
    800011e4:	fe843783          	ld	a5,-24(s0)
}
    800011e8:	853e                	mv	a0,a5
    800011ea:	60e2                	ld	ra,24(sp)
    800011ec:	6442                	ld	s0,16(sp)
    800011ee:	6105                	addi	sp,sp,32
    800011f0:	8082                	ret

00000000800011f2 <w_sstatus>:
{
    800011f2:	1101                	addi	sp,sp,-32
    800011f4:	ec06                	sd	ra,24(sp)
    800011f6:	e822                	sd	s0,16(sp)
    800011f8:	1000                	addi	s0,sp,32
    800011fa:	fea43423          	sd	a0,-24(s0)
  asm volatile("csrw sstatus, %0" : : "r" (x));
    800011fe:	fe843783          	ld	a5,-24(s0)
    80001202:	10079073          	csrw	sstatus,a5
}
    80001206:	0001                	nop
    80001208:	60e2                	ld	ra,24(sp)
    8000120a:	6442                	ld	s0,16(sp)
    8000120c:	6105                	addi	sp,sp,32
    8000120e:	8082                	ret

0000000080001210 <intr_on>:
{
    80001210:	1141                	addi	sp,sp,-16
    80001212:	e406                	sd	ra,8(sp)
    80001214:	e022                	sd	s0,0(sp)
    80001216:	0800                	addi	s0,sp,16
  w_sstatus(r_sstatus() | SSTATUS_SIE);
    80001218:	00000097          	auipc	ra,0x0
    8000121c:	fbc080e7          	jalr	-68(ra) # 800011d4 <r_sstatus>
    80001220:	87aa                	mv	a5,a0
    80001222:	0027e793          	ori	a5,a5,2
    80001226:	853e                	mv	a0,a5
    80001228:	00000097          	auipc	ra,0x0
    8000122c:	fca080e7          	jalr	-54(ra) # 800011f2 <w_sstatus>
}
    80001230:	0001                	nop
    80001232:	60a2                	ld	ra,8(sp)
    80001234:	6402                	ld	s0,0(sp)
    80001236:	0141                	addi	sp,sp,16
    80001238:	8082                	ret

000000008000123a <intr_off>:
{
    8000123a:	1141                	addi	sp,sp,-16
    8000123c:	e406                	sd	ra,8(sp)
    8000123e:	e022                	sd	s0,0(sp)
    80001240:	0800                	addi	s0,sp,16
  w_sstatus(r_sstatus() & ~SSTATUS_SIE);
    80001242:	00000097          	auipc	ra,0x0
    80001246:	f92080e7          	jalr	-110(ra) # 800011d4 <r_sstatus>
    8000124a:	87aa                	mv	a5,a0
    8000124c:	9bf5                	andi	a5,a5,-3
    8000124e:	853e                	mv	a0,a5
    80001250:	00000097          	auipc	ra,0x0
    80001254:	fa2080e7          	jalr	-94(ra) # 800011f2 <w_sstatus>
}
    80001258:	0001                	nop
    8000125a:	60a2                	ld	ra,8(sp)
    8000125c:	6402                	ld	s0,0(sp)
    8000125e:	0141                	addi	sp,sp,16
    80001260:	8082                	ret

0000000080001262 <intr_get>:
{
    80001262:	1101                	addi	sp,sp,-32
    80001264:	ec06                	sd	ra,24(sp)
    80001266:	e822                	sd	s0,16(sp)
    80001268:	1000                	addi	s0,sp,32
  uint64 x = r_sstatus();
    8000126a:	00000097          	auipc	ra,0x0
    8000126e:	f6a080e7          	jalr	-150(ra) # 800011d4 <r_sstatus>
    80001272:	fea43423          	sd	a0,-24(s0)
  return (x & SSTATUS_SIE) != 0;
    80001276:	fe843783          	ld	a5,-24(s0)
    8000127a:	8b89                	andi	a5,a5,2
    8000127c:	00f037b3          	snez	a5,a5
    80001280:	0ff7f793          	zext.b	a5,a5
    80001284:	2781                	sext.w	a5,a5
}
    80001286:	853e                	mv	a0,a5
    80001288:	60e2                	ld	ra,24(sp)
    8000128a:	6442                	ld	s0,16(sp)
    8000128c:	6105                	addi	sp,sp,32
    8000128e:	8082                	ret

0000000080001290 <initlock>:
#include "proc.h"
#include "defs.h"

void
initlock(struct spinlock *lk, char *name)
{
    80001290:	1101                	addi	sp,sp,-32
    80001292:	ec06                	sd	ra,24(sp)
    80001294:	e822                	sd	s0,16(sp)
    80001296:	1000                	addi	s0,sp,32
    80001298:	fea43423          	sd	a0,-24(s0)
    8000129c:	feb43023          	sd	a1,-32(s0)
  lk->name = name;
    800012a0:	fe843783          	ld	a5,-24(s0)
    800012a4:	fe043703          	ld	a4,-32(s0)
    800012a8:	e798                	sd	a4,8(a5)
  lk->locked = 0;
    800012aa:	fe843783          	ld	a5,-24(s0)
    800012ae:	0007a023          	sw	zero,0(a5)
  lk->cpu = 0;
    800012b2:	fe843783          	ld	a5,-24(s0)
    800012b6:	0007b823          	sd	zero,16(a5)
}
    800012ba:	0001                	nop
    800012bc:	60e2                	ld	ra,24(sp)
    800012be:	6442                	ld	s0,16(sp)
    800012c0:	6105                	addi	sp,sp,32
    800012c2:	8082                	ret

00000000800012c4 <acquire>:

// Acquire the lock.
// Loops (spins) until the lock is acquired.
void
acquire(struct spinlock *lk)
{
    800012c4:	1101                	addi	sp,sp,-32
    800012c6:	ec06                	sd	ra,24(sp)
    800012c8:	e822                	sd	s0,16(sp)
    800012ca:	1000                	addi	s0,sp,32
    800012cc:	fea43423          	sd	a0,-24(s0)
  push_off(); // disable interrupts to avoid deadlock.
    800012d0:	00000097          	auipc	ra,0x0
    800012d4:	0f2080e7          	jalr	242(ra) # 800013c2 <push_off>
  if(holding(lk))
    800012d8:	fe843503          	ld	a0,-24(s0)
    800012dc:	00000097          	auipc	ra,0x0
    800012e0:	0a2080e7          	jalr	162(ra) # 8000137e <holding>
    800012e4:	87aa                	mv	a5,a0
    800012e6:	cb89                	beqz	a5,800012f8 <acquire+0x34>
    panic("acquire");
    800012e8:	0000a517          	auipc	a0,0xa
    800012ec:	d6850513          	addi	a0,a0,-664 # 8000b050 <etext+0x50>
    800012f0:	00000097          	auipc	ra,0x0
    800012f4:	9d0080e7          	jalr	-1584(ra) # 80000cc0 <panic>

  // On RISC-V, sync_lock_test_and_set turns into an atomic swap:
  //   a5 = 1
  //   s1 = &lk->locked
  //   amoswap.w.aq a5, a5, (s1)
  while(__sync_lock_test_and_set(&lk->locked, 1) != 0)
    800012f8:	0001                	nop
    800012fa:	fe843783          	ld	a5,-24(s0)
    800012fe:	4705                	li	a4,1
    80001300:	0ce7a72f          	amoswap.w.aq	a4,a4,(a5)
    80001304:	0007079b          	sext.w	a5,a4
    80001308:	fbed                	bnez	a5,800012fa <acquire+0x36>

  // Tell the C compiler and the processor to not move loads or stores
  // past this point, to ensure that the critical section's memory
  // references happen strictly after the lock is acquired.
  // On RISC-V, this emits a fence instruction.
  __sync_synchronize();
    8000130a:	0330000f          	fence	rw,rw

  // Record info about lock acquisition for holding() and debugging.
  lk->cpu = mycpu();
    8000130e:	00001097          	auipc	ra,0x1
    80001312:	574080e7          	jalr	1396(ra) # 80002882 <mycpu>
    80001316:	872a                	mv	a4,a0
    80001318:	fe843783          	ld	a5,-24(s0)
    8000131c:	eb98                	sd	a4,16(a5)
}
    8000131e:	0001                	nop
    80001320:	60e2                	ld	ra,24(sp)
    80001322:	6442                	ld	s0,16(sp)
    80001324:	6105                	addi	sp,sp,32
    80001326:	8082                	ret

0000000080001328 <release>:

// Release the lock.
void
release(struct spinlock *lk)
{
    80001328:	1101                	addi	sp,sp,-32
    8000132a:	ec06                	sd	ra,24(sp)
    8000132c:	e822                	sd	s0,16(sp)
    8000132e:	1000                	addi	s0,sp,32
    80001330:	fea43423          	sd	a0,-24(s0)
  if(!holding(lk))
    80001334:	fe843503          	ld	a0,-24(s0)
    80001338:	00000097          	auipc	ra,0x0
    8000133c:	046080e7          	jalr	70(ra) # 8000137e <holding>
    80001340:	87aa                	mv	a5,a0
    80001342:	eb89                	bnez	a5,80001354 <release+0x2c>
    panic("release");
    80001344:	0000a517          	auipc	a0,0xa
    80001348:	d1450513          	addi	a0,a0,-748 # 8000b058 <etext+0x58>
    8000134c:	00000097          	auipc	ra,0x0
    80001350:	974080e7          	jalr	-1676(ra) # 80000cc0 <panic>

  lk->cpu = 0;
    80001354:	fe843783          	ld	a5,-24(s0)
    80001358:	0007b823          	sd	zero,16(a5)
  // past this point, to ensure that all the stores in the critical
  // section are visible to other CPUs before the lock is released,
  // and that loads in the critical section occur strictly before
  // the lock is released.
  // On RISC-V, this emits a fence instruction.
  __sync_synchronize();
    8000135c:	0330000f          	fence	rw,rw
  // implies that an assignment might be implemented with
  // multiple store instructions.
  // On RISC-V, sync_lock_release turns into an atomic swap:
  //   s1 = &lk->locked
  //   amoswap.w zero, zero, (s1)
  __sync_lock_release(&lk->locked);
    80001360:	fe843783          	ld	a5,-24(s0)
    80001364:	0310000f          	fence	rw,w
    80001368:	0007a023          	sw	zero,0(a5)

  pop_off();
    8000136c:	00000097          	auipc	ra,0x0
    80001370:	0ae080e7          	jalr	174(ra) # 8000141a <pop_off>
}
    80001374:	0001                	nop
    80001376:	60e2                	ld	ra,24(sp)
    80001378:	6442                	ld	s0,16(sp)
    8000137a:	6105                	addi	sp,sp,32
    8000137c:	8082                	ret

000000008000137e <holding>:

// Check whether this cpu is holding the lock.
// Interrupts must be off.
int
holding(struct spinlock *lk)
{
    8000137e:	7139                	addi	sp,sp,-64
    80001380:	fc06                	sd	ra,56(sp)
    80001382:	f822                	sd	s0,48(sp)
    80001384:	f426                	sd	s1,40(sp)
    80001386:	0080                	addi	s0,sp,64
    80001388:	fca43423          	sd	a0,-56(s0)
  int r;
  r = (lk->locked && lk->cpu == mycpu());
    8000138c:	fc843783          	ld	a5,-56(s0)
    80001390:	439c                	lw	a5,0(a5)
    80001392:	cf89                	beqz	a5,800013ac <holding+0x2e>
    80001394:	fc843783          	ld	a5,-56(s0)
    80001398:	6b84                	ld	s1,16(a5)
    8000139a:	00001097          	auipc	ra,0x1
    8000139e:	4e8080e7          	jalr	1256(ra) # 80002882 <mycpu>
    800013a2:	87aa                	mv	a5,a0
    800013a4:	00f49463          	bne	s1,a5,800013ac <holding+0x2e>
    800013a8:	4785                	li	a5,1
    800013aa:	a011                	j	800013ae <holding+0x30>
    800013ac:	4781                	li	a5,0
    800013ae:	fcf42e23          	sw	a5,-36(s0)
  return r;
    800013b2:	fdc42783          	lw	a5,-36(s0)
}
    800013b6:	853e                	mv	a0,a5
    800013b8:	70e2                	ld	ra,56(sp)
    800013ba:	7442                	ld	s0,48(sp)
    800013bc:	74a2                	ld	s1,40(sp)
    800013be:	6121                	addi	sp,sp,64
    800013c0:	8082                	ret

00000000800013c2 <push_off>:
// it takes two pop_off()s to undo two push_off()s.  Also, if interrupts
// are initially off, then push_off, pop_off leaves them off.

void
push_off(void)
{
    800013c2:	1101                	addi	sp,sp,-32
    800013c4:	ec06                	sd	ra,24(sp)
    800013c6:	e822                	sd	s0,16(sp)
    800013c8:	1000                	addi	s0,sp,32
  int old = intr_get();
    800013ca:	00000097          	auipc	ra,0x0
    800013ce:	e98080e7          	jalr	-360(ra) # 80001262 <intr_get>
    800013d2:	87aa                	mv	a5,a0
    800013d4:	fef42623          	sw	a5,-20(s0)

  intr_off();
    800013d8:	00000097          	auipc	ra,0x0
    800013dc:	e62080e7          	jalr	-414(ra) # 8000123a <intr_off>
  if(mycpu()->noff == 0)
    800013e0:	00001097          	auipc	ra,0x1
    800013e4:	4a2080e7          	jalr	1186(ra) # 80002882 <mycpu>
    800013e8:	87aa                	mv	a5,a0
    800013ea:	5fbc                	lw	a5,120(a5)
    800013ec:	eb89                	bnez	a5,800013fe <push_off+0x3c>
    mycpu()->intena = old;
    800013ee:	00001097          	auipc	ra,0x1
    800013f2:	494080e7          	jalr	1172(ra) # 80002882 <mycpu>
    800013f6:	872a                	mv	a4,a0
    800013f8:	fec42783          	lw	a5,-20(s0)
    800013fc:	df7c                	sw	a5,124(a4)
  mycpu()->noff += 1;
    800013fe:	00001097          	auipc	ra,0x1
    80001402:	484080e7          	jalr	1156(ra) # 80002882 <mycpu>
    80001406:	87aa                	mv	a5,a0
    80001408:	5fb8                	lw	a4,120(a5)
    8000140a:	2705                	addiw	a4,a4,1
    8000140c:	2701                	sext.w	a4,a4
    8000140e:	dfb8                	sw	a4,120(a5)
}
    80001410:	0001                	nop
    80001412:	60e2                	ld	ra,24(sp)
    80001414:	6442                	ld	s0,16(sp)
    80001416:	6105                	addi	sp,sp,32
    80001418:	8082                	ret

000000008000141a <pop_off>:

void
pop_off(void)
{
    8000141a:	1101                	addi	sp,sp,-32
    8000141c:	ec06                	sd	ra,24(sp)
    8000141e:	e822                	sd	s0,16(sp)
    80001420:	1000                	addi	s0,sp,32
  struct cpu *c = mycpu();
    80001422:	00001097          	auipc	ra,0x1
    80001426:	460080e7          	jalr	1120(ra) # 80002882 <mycpu>
    8000142a:	fea43423          	sd	a0,-24(s0)
  if(intr_get())
    8000142e:	00000097          	auipc	ra,0x0
    80001432:	e34080e7          	jalr	-460(ra) # 80001262 <intr_get>
    80001436:	87aa                	mv	a5,a0
    80001438:	cb89                	beqz	a5,8000144a <pop_off+0x30>
    panic("pop_off - interruptible");
    8000143a:	0000a517          	auipc	a0,0xa
    8000143e:	c2650513          	addi	a0,a0,-986 # 8000b060 <etext+0x60>
    80001442:	00000097          	auipc	ra,0x0
    80001446:	87e080e7          	jalr	-1922(ra) # 80000cc0 <panic>
  if(c->noff < 1)
    8000144a:	fe843783          	ld	a5,-24(s0)
    8000144e:	5fbc                	lw	a5,120(a5)
    80001450:	00f04a63          	bgtz	a5,80001464 <pop_off+0x4a>
    panic("pop_off");
    80001454:	0000a517          	auipc	a0,0xa
    80001458:	c2450513          	addi	a0,a0,-988 # 8000b078 <etext+0x78>
    8000145c:	00000097          	auipc	ra,0x0
    80001460:	864080e7          	jalr	-1948(ra) # 80000cc0 <panic>
  c->noff -= 1;
    80001464:	fe843783          	ld	a5,-24(s0)
    80001468:	5fbc                	lw	a5,120(a5)
    8000146a:	37fd                	addiw	a5,a5,-1
    8000146c:	0007871b          	sext.w	a4,a5
    80001470:	fe843783          	ld	a5,-24(s0)
    80001474:	dfb8                	sw	a4,120(a5)
  if(c->noff == 0 && c->intena)
    80001476:	fe843783          	ld	a5,-24(s0)
    8000147a:	5fbc                	lw	a5,120(a5)
    8000147c:	eb89                	bnez	a5,8000148e <pop_off+0x74>
    8000147e:	fe843783          	ld	a5,-24(s0)
    80001482:	5ffc                	lw	a5,124(a5)
    80001484:	c789                	beqz	a5,8000148e <pop_off+0x74>
    intr_on();
    80001486:	00000097          	auipc	ra,0x0
    8000148a:	d8a080e7          	jalr	-630(ra) # 80001210 <intr_on>
}
    8000148e:	0001                	nop
    80001490:	60e2                	ld	ra,24(sp)
    80001492:	6442                	ld	s0,16(sp)
    80001494:	6105                	addi	sp,sp,32
    80001496:	8082                	ret

0000000080001498 <memset>:
#include "types.h"

void*
memset(void *dst, int c, uint n)
{
    80001498:	7179                	addi	sp,sp,-48
    8000149a:	f406                	sd	ra,40(sp)
    8000149c:	f022                	sd	s0,32(sp)
    8000149e:	1800                	addi	s0,sp,48
    800014a0:	fca43c23          	sd	a0,-40(s0)
    800014a4:	87ae                	mv	a5,a1
    800014a6:	8732                	mv	a4,a2
    800014a8:	fcf42a23          	sw	a5,-44(s0)
    800014ac:	87ba                	mv	a5,a4
    800014ae:	fcf42823          	sw	a5,-48(s0)
  char *cdst = (char *) dst;
    800014b2:	fd843783          	ld	a5,-40(s0)
    800014b6:	fef43023          	sd	a5,-32(s0)
  int i;
  for(i = 0; i < n; i++){
    800014ba:	fe042623          	sw	zero,-20(s0)
    800014be:	a00d                	j	800014e0 <memset+0x48>
    cdst[i] = c;
    800014c0:	fec42783          	lw	a5,-20(s0)
    800014c4:	fe043703          	ld	a4,-32(s0)
    800014c8:	97ba                	add	a5,a5,a4
    800014ca:	fd442703          	lw	a4,-44(s0)
    800014ce:	0ff77713          	zext.b	a4,a4
    800014d2:	00e78023          	sb	a4,0(a5)
  for(i = 0; i < n; i++){
    800014d6:	fec42783          	lw	a5,-20(s0)
    800014da:	2785                	addiw	a5,a5,1
    800014dc:	fef42623          	sw	a5,-20(s0)
    800014e0:	fec42783          	lw	a5,-20(s0)
    800014e4:	fd042703          	lw	a4,-48(s0)
    800014e8:	2701                	sext.w	a4,a4
    800014ea:	fce7ebe3          	bltu	a5,a4,800014c0 <memset+0x28>
  }
  return dst;
    800014ee:	fd843783          	ld	a5,-40(s0)
}
    800014f2:	853e                	mv	a0,a5
    800014f4:	70a2                	ld	ra,40(sp)
    800014f6:	7402                	ld	s0,32(sp)
    800014f8:	6145                	addi	sp,sp,48
    800014fa:	8082                	ret

00000000800014fc <memcmp>:

int
memcmp(const void *v1, const void *v2, uint n)
{
    800014fc:	7139                	addi	sp,sp,-64
    800014fe:	fc06                	sd	ra,56(sp)
    80001500:	f822                	sd	s0,48(sp)
    80001502:	0080                	addi	s0,sp,64
    80001504:	fca43c23          	sd	a0,-40(s0)
    80001508:	fcb43823          	sd	a1,-48(s0)
    8000150c:	87b2                	mv	a5,a2
    8000150e:	fcf42623          	sw	a5,-52(s0)
  const uchar *s1, *s2;

  s1 = v1;
    80001512:	fd843783          	ld	a5,-40(s0)
    80001516:	fef43423          	sd	a5,-24(s0)
  s2 = v2;
    8000151a:	fd043783          	ld	a5,-48(s0)
    8000151e:	fef43023          	sd	a5,-32(s0)
  while(n-- > 0){
    80001522:	a0a1                	j	8000156a <memcmp+0x6e>
    if(*s1 != *s2)
    80001524:	fe843783          	ld	a5,-24(s0)
    80001528:	0007c703          	lbu	a4,0(a5)
    8000152c:	fe043783          	ld	a5,-32(s0)
    80001530:	0007c783          	lbu	a5,0(a5)
    80001534:	02f70163          	beq	a4,a5,80001556 <memcmp+0x5a>
      return *s1 - *s2;
    80001538:	fe843783          	ld	a5,-24(s0)
    8000153c:	0007c783          	lbu	a5,0(a5)
    80001540:	0007871b          	sext.w	a4,a5
    80001544:	fe043783          	ld	a5,-32(s0)
    80001548:	0007c783          	lbu	a5,0(a5)
    8000154c:	2781                	sext.w	a5,a5
    8000154e:	40f707bb          	subw	a5,a4,a5
    80001552:	2781                	sext.w	a5,a5
    80001554:	a01d                	j	8000157a <memcmp+0x7e>
    s1++, s2++;
    80001556:	fe843783          	ld	a5,-24(s0)
    8000155a:	0785                	addi	a5,a5,1
    8000155c:	fef43423          	sd	a5,-24(s0)
    80001560:	fe043783          	ld	a5,-32(s0)
    80001564:	0785                	addi	a5,a5,1
    80001566:	fef43023          	sd	a5,-32(s0)
  while(n-- > 0){
    8000156a:	fcc42783          	lw	a5,-52(s0)
    8000156e:	fff7871b          	addiw	a4,a5,-1
    80001572:	fce42623          	sw	a4,-52(s0)
    80001576:	f7dd                	bnez	a5,80001524 <memcmp+0x28>
  }

  return 0;
    80001578:	4781                	li	a5,0
}
    8000157a:	853e                	mv	a0,a5
    8000157c:	70e2                	ld	ra,56(sp)
    8000157e:	7442                	ld	s0,48(sp)
    80001580:	6121                	addi	sp,sp,64
    80001582:	8082                	ret

0000000080001584 <memmove>:

void*
memmove(void *dst, const void *src, uint n)
{
    80001584:	7139                	addi	sp,sp,-64
    80001586:	fc06                	sd	ra,56(sp)
    80001588:	f822                	sd	s0,48(sp)
    8000158a:	0080                	addi	s0,sp,64
    8000158c:	fca43c23          	sd	a0,-40(s0)
    80001590:	fcb43823          	sd	a1,-48(s0)
    80001594:	87b2                	mv	a5,a2
    80001596:	fcf42623          	sw	a5,-52(s0)
  const char *s;
  char *d;

  if(n == 0)
    8000159a:	fcc42783          	lw	a5,-52(s0)
    8000159e:	2781                	sext.w	a5,a5
    800015a0:	e781                	bnez	a5,800015a8 <memmove+0x24>
    return dst;
    800015a2:	fd843783          	ld	a5,-40(s0)
    800015a6:	a855                	j	8000165a <memmove+0xd6>
  
  s = src;
    800015a8:	fd043783          	ld	a5,-48(s0)
    800015ac:	fef43423          	sd	a5,-24(s0)
  d = dst;
    800015b0:	fd843783          	ld	a5,-40(s0)
    800015b4:	fef43023          	sd	a5,-32(s0)
  if(s < d && s + n > d){
    800015b8:	fe843703          	ld	a4,-24(s0)
    800015bc:	fe043783          	ld	a5,-32(s0)
    800015c0:	08f77463          	bgeu	a4,a5,80001648 <memmove+0xc4>
    800015c4:	fcc46783          	lwu	a5,-52(s0)
    800015c8:	fe843703          	ld	a4,-24(s0)
    800015cc:	97ba                	add	a5,a5,a4
    800015ce:	fe043703          	ld	a4,-32(s0)
    800015d2:	06f77b63          	bgeu	a4,a5,80001648 <memmove+0xc4>
    s += n;
    800015d6:	fcc46783          	lwu	a5,-52(s0)
    800015da:	fe843703          	ld	a4,-24(s0)
    800015de:	97ba                	add	a5,a5,a4
    800015e0:	fef43423          	sd	a5,-24(s0)
    d += n;
    800015e4:	fcc46783          	lwu	a5,-52(s0)
    800015e8:	fe043703          	ld	a4,-32(s0)
    800015ec:	97ba                	add	a5,a5,a4
    800015ee:	fef43023          	sd	a5,-32(s0)
    while(n-- > 0)
    800015f2:	a01d                	j	80001618 <memmove+0x94>
      *--d = *--s;
    800015f4:	fe843783          	ld	a5,-24(s0)
    800015f8:	17fd                	addi	a5,a5,-1
    800015fa:	fef43423          	sd	a5,-24(s0)
    800015fe:	fe043783          	ld	a5,-32(s0)
    80001602:	17fd                	addi	a5,a5,-1
    80001604:	fef43023          	sd	a5,-32(s0)
    80001608:	fe843783          	ld	a5,-24(s0)
    8000160c:	0007c703          	lbu	a4,0(a5)
    80001610:	fe043783          	ld	a5,-32(s0)
    80001614:	00e78023          	sb	a4,0(a5)
    while(n-- > 0)
    80001618:	fcc42783          	lw	a5,-52(s0)
    8000161c:	fff7871b          	addiw	a4,a5,-1
    80001620:	fce42623          	sw	a4,-52(s0)
    80001624:	fbe1                	bnez	a5,800015f4 <memmove+0x70>
  if(s < d && s + n > d){
    80001626:	a805                	j	80001656 <memmove+0xd2>
  } else
    while(n-- > 0)
      *d++ = *s++;
    80001628:	fe843703          	ld	a4,-24(s0)
    8000162c:	00170793          	addi	a5,a4,1
    80001630:	fef43423          	sd	a5,-24(s0)
    80001634:	fe043783          	ld	a5,-32(s0)
    80001638:	00178693          	addi	a3,a5,1
    8000163c:	fed43023          	sd	a3,-32(s0)
    80001640:	00074703          	lbu	a4,0(a4)
    80001644:	00e78023          	sb	a4,0(a5)
    while(n-- > 0)
    80001648:	fcc42783          	lw	a5,-52(s0)
    8000164c:	fff7871b          	addiw	a4,a5,-1
    80001650:	fce42623          	sw	a4,-52(s0)
    80001654:	fbf1                	bnez	a5,80001628 <memmove+0xa4>

  return dst;
    80001656:	fd843783          	ld	a5,-40(s0)
}
    8000165a:	853e                	mv	a0,a5
    8000165c:	70e2                	ld	ra,56(sp)
    8000165e:	7442                	ld	s0,48(sp)
    80001660:	6121                	addi	sp,sp,64
    80001662:	8082                	ret

0000000080001664 <memcpy>:

// memcpy exists to placate GCC.  Use memmove.
void*
memcpy(void *dst, const void *src, uint n)
{
    80001664:	7179                	addi	sp,sp,-48
    80001666:	f406                	sd	ra,40(sp)
    80001668:	f022                	sd	s0,32(sp)
    8000166a:	1800                	addi	s0,sp,48
    8000166c:	fea43423          	sd	a0,-24(s0)
    80001670:	feb43023          	sd	a1,-32(s0)
    80001674:	87b2                	mv	a5,a2
    80001676:	fcf42e23          	sw	a5,-36(s0)
  return memmove(dst, src, n);
    8000167a:	fdc42783          	lw	a5,-36(s0)
    8000167e:	863e                	mv	a2,a5
    80001680:	fe043583          	ld	a1,-32(s0)
    80001684:	fe843503          	ld	a0,-24(s0)
    80001688:	00000097          	auipc	ra,0x0
    8000168c:	efc080e7          	jalr	-260(ra) # 80001584 <memmove>
    80001690:	87aa                	mv	a5,a0
}
    80001692:	853e                	mv	a0,a5
    80001694:	70a2                	ld	ra,40(sp)
    80001696:	7402                	ld	s0,32(sp)
    80001698:	6145                	addi	sp,sp,48
    8000169a:	8082                	ret

000000008000169c <strncmp>:

int
strncmp(const char *p, const char *q, uint n)
{
    8000169c:	7179                	addi	sp,sp,-48
    8000169e:	f406                	sd	ra,40(sp)
    800016a0:	f022                	sd	s0,32(sp)
    800016a2:	1800                	addi	s0,sp,48
    800016a4:	fea43423          	sd	a0,-24(s0)
    800016a8:	feb43023          	sd	a1,-32(s0)
    800016ac:	87b2                	mv	a5,a2
    800016ae:	fcf42e23          	sw	a5,-36(s0)
  while(n > 0 && *p && *p == *q)
    800016b2:	a005                	j	800016d2 <strncmp+0x36>
    n--, p++, q++;
    800016b4:	fdc42783          	lw	a5,-36(s0)
    800016b8:	37fd                	addiw	a5,a5,-1
    800016ba:	fcf42e23          	sw	a5,-36(s0)
    800016be:	fe843783          	ld	a5,-24(s0)
    800016c2:	0785                	addi	a5,a5,1
    800016c4:	fef43423          	sd	a5,-24(s0)
    800016c8:	fe043783          	ld	a5,-32(s0)
    800016cc:	0785                	addi	a5,a5,1
    800016ce:	fef43023          	sd	a5,-32(s0)
  while(n > 0 && *p && *p == *q)
    800016d2:	fdc42783          	lw	a5,-36(s0)
    800016d6:	2781                	sext.w	a5,a5
    800016d8:	c385                	beqz	a5,800016f8 <strncmp+0x5c>
    800016da:	fe843783          	ld	a5,-24(s0)
    800016de:	0007c783          	lbu	a5,0(a5)
    800016e2:	cb99                	beqz	a5,800016f8 <strncmp+0x5c>
    800016e4:	fe843783          	ld	a5,-24(s0)
    800016e8:	0007c703          	lbu	a4,0(a5)
    800016ec:	fe043783          	ld	a5,-32(s0)
    800016f0:	0007c783          	lbu	a5,0(a5)
    800016f4:	fcf700e3          	beq	a4,a5,800016b4 <strncmp+0x18>
  if(n == 0)
    800016f8:	fdc42783          	lw	a5,-36(s0)
    800016fc:	2781                	sext.w	a5,a5
    800016fe:	e399                	bnez	a5,80001704 <strncmp+0x68>
    return 0;
    80001700:	4781                	li	a5,0
    80001702:	a839                	j	80001720 <strncmp+0x84>
  return (uchar)*p - (uchar)*q;
    80001704:	fe843783          	ld	a5,-24(s0)
    80001708:	0007c783          	lbu	a5,0(a5)
    8000170c:	0007871b          	sext.w	a4,a5
    80001710:	fe043783          	ld	a5,-32(s0)
    80001714:	0007c783          	lbu	a5,0(a5)
    80001718:	2781                	sext.w	a5,a5
    8000171a:	40f707bb          	subw	a5,a4,a5
    8000171e:	2781                	sext.w	a5,a5
}
    80001720:	853e                	mv	a0,a5
    80001722:	70a2                	ld	ra,40(sp)
    80001724:	7402                	ld	s0,32(sp)
    80001726:	6145                	addi	sp,sp,48
    80001728:	8082                	ret

000000008000172a <strncpy>:

char*
strncpy(char *s, const char *t, int n)
{
    8000172a:	7139                	addi	sp,sp,-64
    8000172c:	fc06                	sd	ra,56(sp)
    8000172e:	f822                	sd	s0,48(sp)
    80001730:	0080                	addi	s0,sp,64
    80001732:	fca43c23          	sd	a0,-40(s0)
    80001736:	fcb43823          	sd	a1,-48(s0)
    8000173a:	87b2                	mv	a5,a2
    8000173c:	fcf42623          	sw	a5,-52(s0)
  char *os;

  os = s;
    80001740:	fd843783          	ld	a5,-40(s0)
    80001744:	fef43423          	sd	a5,-24(s0)
  while(n-- > 0 && (*s++ = *t++) != 0)
    80001748:	0001                	nop
    8000174a:	fcc42783          	lw	a5,-52(s0)
    8000174e:	fff7871b          	addiw	a4,a5,-1
    80001752:	fce42623          	sw	a4,-52(s0)
    80001756:	02f05e63          	blez	a5,80001792 <strncpy+0x68>
    8000175a:	fd043703          	ld	a4,-48(s0)
    8000175e:	00170793          	addi	a5,a4,1
    80001762:	fcf43823          	sd	a5,-48(s0)
    80001766:	fd843783          	ld	a5,-40(s0)
    8000176a:	00178693          	addi	a3,a5,1
    8000176e:	fcd43c23          	sd	a3,-40(s0)
    80001772:	00074703          	lbu	a4,0(a4)
    80001776:	00e78023          	sb	a4,0(a5)
    8000177a:	0007c783          	lbu	a5,0(a5)
    8000177e:	f7f1                	bnez	a5,8000174a <strncpy+0x20>
    ;
  while(n-- > 0)
    80001780:	a809                	j	80001792 <strncpy+0x68>
    *s++ = 0;
    80001782:	fd843783          	ld	a5,-40(s0)
    80001786:	00178713          	addi	a4,a5,1
    8000178a:	fce43c23          	sd	a4,-40(s0)
    8000178e:	00078023          	sb	zero,0(a5)
  while(n-- > 0)
    80001792:	fcc42783          	lw	a5,-52(s0)
    80001796:	fff7871b          	addiw	a4,a5,-1
    8000179a:	fce42623          	sw	a4,-52(s0)
    8000179e:	fef042e3          	bgtz	a5,80001782 <strncpy+0x58>
  return os;
    800017a2:	fe843783          	ld	a5,-24(s0)
}
    800017a6:	853e                	mv	a0,a5
    800017a8:	70e2                	ld	ra,56(sp)
    800017aa:	7442                	ld	s0,48(sp)
    800017ac:	6121                	addi	sp,sp,64
    800017ae:	8082                	ret

00000000800017b0 <safestrcpy>:

// Like strncpy but guaranteed to NUL-terminate.
char*
safestrcpy(char *s, const char *t, int n)
{
    800017b0:	7139                	addi	sp,sp,-64
    800017b2:	fc06                	sd	ra,56(sp)
    800017b4:	f822                	sd	s0,48(sp)
    800017b6:	0080                	addi	s0,sp,64
    800017b8:	fca43c23          	sd	a0,-40(s0)
    800017bc:	fcb43823          	sd	a1,-48(s0)
    800017c0:	87b2                	mv	a5,a2
    800017c2:	fcf42623          	sw	a5,-52(s0)
  char *os;

  os = s;
    800017c6:	fd843783          	ld	a5,-40(s0)
    800017ca:	fef43423          	sd	a5,-24(s0)
  if(n <= 0)
    800017ce:	fcc42783          	lw	a5,-52(s0)
    800017d2:	2781                	sext.w	a5,a5
    800017d4:	00f04563          	bgtz	a5,800017de <safestrcpy+0x2e>
    return os;
    800017d8:	fe843783          	ld	a5,-24(s0)
    800017dc:	a0a9                	j	80001826 <safestrcpy+0x76>
  while(--n > 0 && (*s++ = *t++) != 0)
    800017de:	0001                	nop
    800017e0:	fcc42783          	lw	a5,-52(s0)
    800017e4:	37fd                	addiw	a5,a5,-1
    800017e6:	fcf42623          	sw	a5,-52(s0)
    800017ea:	fcc42783          	lw	a5,-52(s0)
    800017ee:	2781                	sext.w	a5,a5
    800017f0:	02f05563          	blez	a5,8000181a <safestrcpy+0x6a>
    800017f4:	fd043703          	ld	a4,-48(s0)
    800017f8:	00170793          	addi	a5,a4,1
    800017fc:	fcf43823          	sd	a5,-48(s0)
    80001800:	fd843783          	ld	a5,-40(s0)
    80001804:	00178693          	addi	a3,a5,1
    80001808:	fcd43c23          	sd	a3,-40(s0)
    8000180c:	00074703          	lbu	a4,0(a4)
    80001810:	00e78023          	sb	a4,0(a5)
    80001814:	0007c783          	lbu	a5,0(a5)
    80001818:	f7e1                	bnez	a5,800017e0 <safestrcpy+0x30>
    ;
  *s = 0;
    8000181a:	fd843783          	ld	a5,-40(s0)
    8000181e:	00078023          	sb	zero,0(a5)
  return os;
    80001822:	fe843783          	ld	a5,-24(s0)
}
    80001826:	853e                	mv	a0,a5
    80001828:	70e2                	ld	ra,56(sp)
    8000182a:	7442                	ld	s0,48(sp)
    8000182c:	6121                	addi	sp,sp,64
    8000182e:	8082                	ret

0000000080001830 <strlen>:

int
strlen(const char *s)
{
    80001830:	7179                	addi	sp,sp,-48
    80001832:	f406                	sd	ra,40(sp)
    80001834:	f022                	sd	s0,32(sp)
    80001836:	1800                	addi	s0,sp,48
    80001838:	fca43c23          	sd	a0,-40(s0)
  int n;

  for(n = 0; s[n]; n++)
    8000183c:	fe042623          	sw	zero,-20(s0)
    80001840:	a031                	j	8000184c <strlen+0x1c>
    80001842:	fec42783          	lw	a5,-20(s0)
    80001846:	2785                	addiw	a5,a5,1
    80001848:	fef42623          	sw	a5,-20(s0)
    8000184c:	fec42783          	lw	a5,-20(s0)
    80001850:	fd843703          	ld	a4,-40(s0)
    80001854:	97ba                	add	a5,a5,a4
    80001856:	0007c783          	lbu	a5,0(a5)
    8000185a:	f7e5                	bnez	a5,80001842 <strlen+0x12>
    ;
  return n;
    8000185c:	fec42783          	lw	a5,-20(s0)
}
    80001860:	853e                	mv	a0,a5
    80001862:	70a2                	ld	ra,40(sp)
    80001864:	7402                	ld	s0,32(sp)
    80001866:	6145                	addi	sp,sp,48
    80001868:	8082                	ret

000000008000186a <main>:
volatile static int started = 0;

// start() jumps here in supervisor mode on all CPUs.
void
main()
{
    8000186a:	1141                	addi	sp,sp,-16
    8000186c:	e406                	sd	ra,8(sp)
    8000186e:	e022                	sd	s0,0(sp)
    80001870:	0800                	addi	s0,sp,16
  if(cpuid() == 0){
    80001872:	00001097          	auipc	ra,0x1
    80001876:	fec080e7          	jalr	-20(ra) # 8000285e <cpuid>
    8000187a:	87aa                	mv	a5,a0
    8000187c:	efd5                	bnez	a5,80001938 <main+0xce>
    consoleinit();
    8000187e:	fffff097          	auipc	ra,0xfffff
    80001882:	020080e7          	jalr	32(ra) # 8000089e <consoleinit>
    printfinit();
    80001886:	fffff097          	auipc	ra,0xfffff
    8000188a:	48e080e7          	jalr	1166(ra) # 80000d14 <printfinit>
    printf("\n");
    8000188e:	00009517          	auipc	a0,0x9
    80001892:	7f250513          	addi	a0,a0,2034 # 8000b080 <etext+0x80>
    80001896:	fffff097          	auipc	ra,0xfffff
    8000189a:	1d4080e7          	jalr	468(ra) # 80000a6a <printf>
    printf("xv6 kernel is booting\n");
    8000189e:	00009517          	auipc	a0,0x9
    800018a2:	7ea50513          	addi	a0,a0,2026 # 8000b088 <etext+0x88>
    800018a6:	fffff097          	auipc	ra,0xfffff
    800018aa:	1c4080e7          	jalr	452(ra) # 80000a6a <printf>
    printf("\n");
    800018ae:	00009517          	auipc	a0,0x9
    800018b2:	7d250513          	addi	a0,a0,2002 # 8000b080 <etext+0x80>
    800018b6:	fffff097          	auipc	ra,0xfffff
    800018ba:	1b4080e7          	jalr	436(ra) # 80000a6a <printf>
    kinit();         // physical page allocator
    800018be:	fffff097          	auipc	ra,0xfffff
    800018c2:	76a080e7          	jalr	1898(ra) # 80001028 <kinit>
    kvminit();       // create kernel page table
    800018c6:	00000097          	auipc	ra,0x0
    800018ca:	1fc080e7          	jalr	508(ra) # 80001ac2 <kvminit>
    kvminithart();   // turn on paging
    800018ce:	00000097          	auipc	ra,0x0
    800018d2:	21a080e7          	jalr	538(ra) # 80001ae8 <kvminithart>
    procinit();      // process table
    800018d6:	00001097          	auipc	ra,0x1
    800018da:	eba080e7          	jalr	-326(ra) # 80002790 <procinit>
    trapinit();      // trap vectors
    800018de:	00002097          	auipc	ra,0x2
    800018e2:	1b8080e7          	jalr	440(ra) # 80003a96 <trapinit>
    trapinithart();  // install kernel trap vector
    800018e6:	00002097          	auipc	ra,0x2
    800018ea:	1da080e7          	jalr	474(ra) # 80003ac0 <trapinithart>
    plicinit();      // set up interrupt controller
    800018ee:	00007097          	auipc	ra,0x7
    800018f2:	f5c080e7          	jalr	-164(ra) # 8000884a <plicinit>
    plicinithart();  // ask PLIC for device interrupts
    800018f6:	00007097          	auipc	ra,0x7
    800018fa:	f7c080e7          	jalr	-132(ra) # 80008872 <plicinithart>
    binit();         // buffer cache
    800018fe:	00003097          	auipc	ra,0x3
    80001902:	bae080e7          	jalr	-1106(ra) # 800044ac <binit>
    iinit();         // inode table
    80001906:	00003097          	auipc	ra,0x3
    8000190a:	3dc080e7          	jalr	988(ra) # 80004ce2 <iinit>
    fileinit();      // file table
    8000190e:	00005097          	auipc	ra,0x5
    80001912:	d86080e7          	jalr	-634(ra) # 80006694 <fileinit>
    virtio_disk_init(); // emulated hard disk
    80001916:	00007097          	auipc	ra,0x7
    8000191a:	030080e7          	jalr	48(ra) # 80008946 <virtio_disk_init>
    userinit();      // first user process
    8000191e:	00001097          	auipc	ra,0x1
    80001922:	31e080e7          	jalr	798(ra) # 80002c3c <userinit>
    __sync_synchronize();
    80001926:	0330000f          	fence	rw,rw
    started = 1;
    8000192a:	00012797          	auipc	a5,0x12
    8000192e:	20678793          	addi	a5,a5,518 # 80013b30 <started>
    80001932:	4705                	li	a4,1
    80001934:	c398                	sw	a4,0(a5)
    80001936:	a0a9                	j	80001980 <main+0x116>
  } else {
    while(started == 0)
    80001938:	0001                	nop
    8000193a:	00012797          	auipc	a5,0x12
    8000193e:	1f678793          	addi	a5,a5,502 # 80013b30 <started>
    80001942:	439c                	lw	a5,0(a5)
    80001944:	2781                	sext.w	a5,a5
    80001946:	dbf5                	beqz	a5,8000193a <main+0xd0>
      ;
    __sync_synchronize();
    80001948:	0330000f          	fence	rw,rw
    printf("hart %d starting\n", cpuid());
    8000194c:	00001097          	auipc	ra,0x1
    80001950:	f12080e7          	jalr	-238(ra) # 8000285e <cpuid>
    80001954:	87aa                	mv	a5,a0
    80001956:	85be                	mv	a1,a5
    80001958:	00009517          	auipc	a0,0x9
    8000195c:	74850513          	addi	a0,a0,1864 # 8000b0a0 <etext+0xa0>
    80001960:	fffff097          	auipc	ra,0xfffff
    80001964:	10a080e7          	jalr	266(ra) # 80000a6a <printf>
    kvminithart();    // turn on paging
    80001968:	00000097          	auipc	ra,0x0
    8000196c:	180080e7          	jalr	384(ra) # 80001ae8 <kvminithart>
    trapinithart();   // install kernel trap vector
    80001970:	00002097          	auipc	ra,0x2
    80001974:	150080e7          	jalr	336(ra) # 80003ac0 <trapinithart>
    plicinithart();   // ask PLIC for device interrupts
    80001978:	00007097          	auipc	ra,0x7
    8000197c:	efa080e7          	jalr	-262(ra) # 80008872 <plicinithart>
  }

  scheduler();        
    80001980:	00002097          	auipc	ra,0x2
    80001984:	8d0080e7          	jalr	-1840(ra) # 80003250 <scheduler>

0000000080001988 <w_satp>:
{
    80001988:	1101                	addi	sp,sp,-32
    8000198a:	ec06                	sd	ra,24(sp)
    8000198c:	e822                	sd	s0,16(sp)
    8000198e:	1000                	addi	s0,sp,32
    80001990:	fea43423          	sd	a0,-24(s0)
  asm volatile("csrw satp, %0" : : "r" (x));
    80001994:	fe843783          	ld	a5,-24(s0)
    80001998:	18079073          	csrw	satp,a5
}
    8000199c:	0001                	nop
    8000199e:	60e2                	ld	ra,24(sp)
    800019a0:	6442                	ld	s0,16(sp)
    800019a2:	6105                	addi	sp,sp,32
    800019a4:	8082                	ret

00000000800019a6 <sfence_vma>:
}

// flush the TLB.
static inline void
sfence_vma()
{
    800019a6:	1141                	addi	sp,sp,-16
    800019a8:	e406                	sd	ra,8(sp)
    800019aa:	e022                	sd	s0,0(sp)
    800019ac:	0800                	addi	s0,sp,16
  // the zero, zero means flush all TLB entries.
  asm volatile("sfence.vma zero, zero");
    800019ae:	12000073          	sfence.vma
}
    800019b2:	0001                	nop
    800019b4:	60a2                	ld	ra,8(sp)
    800019b6:	6402                	ld	s0,0(sp)
    800019b8:	0141                	addi	sp,sp,16
    800019ba:	8082                	ret

00000000800019bc <kvmmake>:
extern char trampoline[]; // trampoline.S

// Make a direct-map page table for the kernel.
pagetable_t
kvmmake(void)
{
    800019bc:	1101                	addi	sp,sp,-32
    800019be:	ec06                	sd	ra,24(sp)
    800019c0:	e822                	sd	s0,16(sp)
    800019c2:	1000                	addi	s0,sp,32
  pagetable_t kpgtbl;

  kpgtbl = (pagetable_t) kalloc();
    800019c4:	fffff097          	auipc	ra,0xfffff
    800019c8:	7a0080e7          	jalr	1952(ra) # 80001164 <kalloc>
    800019cc:	fea43423          	sd	a0,-24(s0)
  memset(kpgtbl, 0, PGSIZE);
    800019d0:	6605                	lui	a2,0x1
    800019d2:	4581                	li	a1,0
    800019d4:	fe843503          	ld	a0,-24(s0)
    800019d8:	00000097          	auipc	ra,0x0
    800019dc:	ac0080e7          	jalr	-1344(ra) # 80001498 <memset>

  // uart registers
  kvmmap(kpgtbl, UART0, UART0, PGSIZE, PTE_R | PTE_W);
    800019e0:	4719                	li	a4,6
    800019e2:	6685                	lui	a3,0x1
    800019e4:	10000637          	lui	a2,0x10000
    800019e8:	100005b7          	lui	a1,0x10000
    800019ec:	fe843503          	ld	a0,-24(s0)
    800019f0:	00000097          	auipc	ra,0x0
    800019f4:	2a2080e7          	jalr	674(ra) # 80001c92 <kvmmap>

  // virtio mmio disk interface
  kvmmap(kpgtbl, VIRTIO0, VIRTIO0, PGSIZE, PTE_R | PTE_W);
    800019f8:	4719                	li	a4,6
    800019fa:	6685                	lui	a3,0x1
    800019fc:	10001637          	lui	a2,0x10001
    80001a00:	100015b7          	lui	a1,0x10001
    80001a04:	fe843503          	ld	a0,-24(s0)
    80001a08:	00000097          	auipc	ra,0x0
    80001a0c:	28a080e7          	jalr	650(ra) # 80001c92 <kvmmap>

  // PLIC
  kvmmap(kpgtbl, PLIC, PLIC, 0x400000, PTE_R | PTE_W);
    80001a10:	4719                	li	a4,6
    80001a12:	004006b7          	lui	a3,0x400
    80001a16:	0c000637          	lui	a2,0xc000
    80001a1a:	0c0005b7          	lui	a1,0xc000
    80001a1e:	fe843503          	ld	a0,-24(s0)
    80001a22:	00000097          	auipc	ra,0x0
    80001a26:	270080e7          	jalr	624(ra) # 80001c92 <kvmmap>

  // map kernel text executable and read-only.
  kvmmap(kpgtbl, KERNBASE, KERNBASE, (uint64)etext-KERNBASE, PTE_R | PTE_X);
    80001a2a:	00009717          	auipc	a4,0x9
    80001a2e:	5d670713          	addi	a4,a4,1494 # 8000b000 <etext>
    80001a32:	800007b7          	lui	a5,0x80000
    80001a36:	97ba                	add	a5,a5,a4
    80001a38:	4729                	li	a4,10
    80001a3a:	86be                	mv	a3,a5
    80001a3c:	4785                	li	a5,1
    80001a3e:	01f79613          	slli	a2,a5,0x1f
    80001a42:	4785                	li	a5,1
    80001a44:	01f79593          	slli	a1,a5,0x1f
    80001a48:	fe843503          	ld	a0,-24(s0)
    80001a4c:	00000097          	auipc	ra,0x0
    80001a50:	246080e7          	jalr	582(ra) # 80001c92 <kvmmap>

  // map kernel data and the physical RAM we'll make use of.
  kvmmap(kpgtbl, (uint64)etext, (uint64)etext, PHYSTOP-(uint64)etext, PTE_R | PTE_W);
    80001a54:	00009597          	auipc	a1,0x9
    80001a58:	5ac58593          	addi	a1,a1,1452 # 8000b000 <etext>
    80001a5c:	00009617          	auipc	a2,0x9
    80001a60:	5a460613          	addi	a2,a2,1444 # 8000b000 <etext>
    80001a64:	00009797          	auipc	a5,0x9
    80001a68:	59c78793          	addi	a5,a5,1436 # 8000b000 <etext>
    80001a6c:	4745                	li	a4,17
    80001a6e:	076e                	slli	a4,a4,0x1b
    80001a70:	40f707b3          	sub	a5,a4,a5
    80001a74:	4719                	li	a4,6
    80001a76:	86be                	mv	a3,a5
    80001a78:	fe843503          	ld	a0,-24(s0)
    80001a7c:	00000097          	auipc	ra,0x0
    80001a80:	216080e7          	jalr	534(ra) # 80001c92 <kvmmap>

  // map the trampoline for trap entry/exit to
  // the highest virtual address in the kernel.
  kvmmap(kpgtbl, TRAMPOLINE, (uint64)trampoline, PGSIZE, PTE_R | PTE_X);
    80001a84:	00008797          	auipc	a5,0x8
    80001a88:	57c78793          	addi	a5,a5,1404 # 8000a000 <_trampoline>
    80001a8c:	4729                	li	a4,10
    80001a8e:	6685                	lui	a3,0x1
    80001a90:	863e                	mv	a2,a5
    80001a92:	040007b7          	lui	a5,0x4000
    80001a96:	17fd                	addi	a5,a5,-1 # 3ffffff <_entry-0x7c000001>
    80001a98:	00c79593          	slli	a1,a5,0xc
    80001a9c:	fe843503          	ld	a0,-24(s0)
    80001aa0:	00000097          	auipc	ra,0x0
    80001aa4:	1f2080e7          	jalr	498(ra) # 80001c92 <kvmmap>

  // allocate and map a kernel stack for each process.
  proc_mapstacks(kpgtbl);
    80001aa8:	fe843503          	ld	a0,-24(s0)
    80001aac:	00001097          	auipc	ra,0x1
    80001ab0:	c28080e7          	jalr	-984(ra) # 800026d4 <proc_mapstacks>
  
  return kpgtbl;
    80001ab4:	fe843783          	ld	a5,-24(s0)
}
    80001ab8:	853e                	mv	a0,a5
    80001aba:	60e2                	ld	ra,24(sp)
    80001abc:	6442                	ld	s0,16(sp)
    80001abe:	6105                	addi	sp,sp,32
    80001ac0:	8082                	ret

0000000080001ac2 <kvminit>:

// Initialize the one kernel_pagetable
void
kvminit(void)
{
    80001ac2:	1141                	addi	sp,sp,-16
    80001ac4:	e406                	sd	ra,8(sp)
    80001ac6:	e022                	sd	s0,0(sp)
    80001ac8:	0800                	addi	s0,sp,16
  kernel_pagetable = kvmmake();
    80001aca:	00000097          	auipc	ra,0x0
    80001ace:	ef2080e7          	jalr	-270(ra) # 800019bc <kvmmake>
    80001ad2:	872a                	mv	a4,a0
    80001ad4:	0000a797          	auipc	a5,0xa
    80001ad8:	de478793          	addi	a5,a5,-540 # 8000b8b8 <kernel_pagetable>
    80001adc:	e398                	sd	a4,0(a5)
}
    80001ade:	0001                	nop
    80001ae0:	60a2                	ld	ra,8(sp)
    80001ae2:	6402                	ld	s0,0(sp)
    80001ae4:	0141                	addi	sp,sp,16
    80001ae6:	8082                	ret

0000000080001ae8 <kvminithart>:

// Switch h/w page table register to the kernel's page table,
// and enable paging.
void
kvminithart()
{
    80001ae8:	1141                	addi	sp,sp,-16
    80001aea:	e406                	sd	ra,8(sp)
    80001aec:	e022                	sd	s0,0(sp)
    80001aee:	0800                	addi	s0,sp,16
  // wait for any previous writes to the page table memory to finish.
  sfence_vma();
    80001af0:	00000097          	auipc	ra,0x0
    80001af4:	eb6080e7          	jalr	-330(ra) # 800019a6 <sfence_vma>

  w_satp(MAKE_SATP(kernel_pagetable));
    80001af8:	0000a797          	auipc	a5,0xa
    80001afc:	dc078793          	addi	a5,a5,-576 # 8000b8b8 <kernel_pagetable>
    80001b00:	639c                	ld	a5,0(a5)
    80001b02:	00c7d713          	srli	a4,a5,0xc
    80001b06:	57fd                	li	a5,-1
    80001b08:	17fe                	slli	a5,a5,0x3f
    80001b0a:	8fd9                	or	a5,a5,a4
    80001b0c:	853e                	mv	a0,a5
    80001b0e:	00000097          	auipc	ra,0x0
    80001b12:	e7a080e7          	jalr	-390(ra) # 80001988 <w_satp>

  // flush stale entries from the TLB.
  sfence_vma();
    80001b16:	00000097          	auipc	ra,0x0
    80001b1a:	e90080e7          	jalr	-368(ra) # 800019a6 <sfence_vma>
}
    80001b1e:	0001                	nop
    80001b20:	60a2                	ld	ra,8(sp)
    80001b22:	6402                	ld	s0,0(sp)
    80001b24:	0141                	addi	sp,sp,16
    80001b26:	8082                	ret

0000000080001b28 <walk>:
//   21..29 -- 9 bits of level-1 index.
//   12..20 -- 9 bits of level-0 index.
//    0..11 -- 12 bits of byte offset within the page.
pte_t *
walk(pagetable_t pagetable, uint64 va, int alloc)
{
    80001b28:	7139                	addi	sp,sp,-64
    80001b2a:	fc06                	sd	ra,56(sp)
    80001b2c:	f822                	sd	s0,48(sp)
    80001b2e:	0080                	addi	s0,sp,64
    80001b30:	fca43c23          	sd	a0,-40(s0)
    80001b34:	fcb43823          	sd	a1,-48(s0)
    80001b38:	87b2                	mv	a5,a2
    80001b3a:	fcf42623          	sw	a5,-52(s0)
  if(va >= MAXVA)
    80001b3e:	fd043703          	ld	a4,-48(s0)
    80001b42:	57fd                	li	a5,-1
    80001b44:	83e9                	srli	a5,a5,0x1a
    80001b46:	00e7fa63          	bgeu	a5,a4,80001b5a <walk+0x32>
    panic("walk");
    80001b4a:	00009517          	auipc	a0,0x9
    80001b4e:	56e50513          	addi	a0,a0,1390 # 8000b0b8 <etext+0xb8>
    80001b52:	fffff097          	auipc	ra,0xfffff
    80001b56:	16e080e7          	jalr	366(ra) # 80000cc0 <panic>

  for(int level = 2; level > 0; level--) {
    80001b5a:	4789                	li	a5,2
    80001b5c:	fef42623          	sw	a5,-20(s0)
    80001b60:	a851                	j	80001bf4 <walk+0xcc>
    pte_t *pte = &pagetable[PX(level, va)];
    80001b62:	fec42783          	lw	a5,-20(s0)
    80001b66:	873e                	mv	a4,a5
    80001b68:	87ba                	mv	a5,a4
    80001b6a:	0037979b          	slliw	a5,a5,0x3
    80001b6e:	9fb9                	addw	a5,a5,a4
    80001b70:	2781                	sext.w	a5,a5
    80001b72:	27b1                	addiw	a5,a5,12
    80001b74:	2781                	sext.w	a5,a5
    80001b76:	873e                	mv	a4,a5
    80001b78:	fd043783          	ld	a5,-48(s0)
    80001b7c:	00e7d7b3          	srl	a5,a5,a4
    80001b80:	1ff7f793          	andi	a5,a5,511
    80001b84:	078e                	slli	a5,a5,0x3
    80001b86:	fd843703          	ld	a4,-40(s0)
    80001b8a:	97ba                	add	a5,a5,a4
    80001b8c:	fef43023          	sd	a5,-32(s0)
    if(*pte & PTE_V) {
    80001b90:	fe043783          	ld	a5,-32(s0)
    80001b94:	639c                	ld	a5,0(a5)
    80001b96:	8b85                	andi	a5,a5,1
    80001b98:	cb89                	beqz	a5,80001baa <walk+0x82>
      pagetable = (pagetable_t)PTE2PA(*pte);
    80001b9a:	fe043783          	ld	a5,-32(s0)
    80001b9e:	639c                	ld	a5,0(a5)
    80001ba0:	83a9                	srli	a5,a5,0xa
    80001ba2:	07b2                	slli	a5,a5,0xc
    80001ba4:	fcf43c23          	sd	a5,-40(s0)
    80001ba8:	a089                	j	80001bea <walk+0xc2>
    } else {
      if(!alloc || (pagetable = (pde_t*)kalloc()) == 0)
    80001baa:	fcc42783          	lw	a5,-52(s0)
    80001bae:	2781                	sext.w	a5,a5
    80001bb0:	cb91                	beqz	a5,80001bc4 <walk+0x9c>
    80001bb2:	fffff097          	auipc	ra,0xfffff
    80001bb6:	5b2080e7          	jalr	1458(ra) # 80001164 <kalloc>
    80001bba:	fca43c23          	sd	a0,-40(s0)
    80001bbe:	fd843783          	ld	a5,-40(s0)
    80001bc2:	e399                	bnez	a5,80001bc8 <walk+0xa0>
        return 0;
    80001bc4:	4781                	li	a5,0
    80001bc6:	a0a9                	j	80001c10 <walk+0xe8>
      memset(pagetable, 0, PGSIZE);
    80001bc8:	6605                	lui	a2,0x1
    80001bca:	4581                	li	a1,0
    80001bcc:	fd843503          	ld	a0,-40(s0)
    80001bd0:	00000097          	auipc	ra,0x0
    80001bd4:	8c8080e7          	jalr	-1848(ra) # 80001498 <memset>
      *pte = PA2PTE(pagetable) | PTE_V;
    80001bd8:	fd843783          	ld	a5,-40(s0)
    80001bdc:	83b1                	srli	a5,a5,0xc
    80001bde:	07aa                	slli	a5,a5,0xa
    80001be0:	0017e713          	ori	a4,a5,1
    80001be4:	fe043783          	ld	a5,-32(s0)
    80001be8:	e398                	sd	a4,0(a5)
  for(int level = 2; level > 0; level--) {
    80001bea:	fec42783          	lw	a5,-20(s0)
    80001bee:	37fd                	addiw	a5,a5,-1
    80001bf0:	fef42623          	sw	a5,-20(s0)
    80001bf4:	fec42783          	lw	a5,-20(s0)
    80001bf8:	2781                	sext.w	a5,a5
    80001bfa:	f6f044e3          	bgtz	a5,80001b62 <walk+0x3a>
    }
  }
  return &pagetable[PX(0, va)];
    80001bfe:	fd043783          	ld	a5,-48(s0)
    80001c02:	83b1                	srli	a5,a5,0xc
    80001c04:	1ff7f793          	andi	a5,a5,511
    80001c08:	078e                	slli	a5,a5,0x3
    80001c0a:	fd843703          	ld	a4,-40(s0)
    80001c0e:	97ba                	add	a5,a5,a4
}
    80001c10:	853e                	mv	a0,a5
    80001c12:	70e2                	ld	ra,56(sp)
    80001c14:	7442                	ld	s0,48(sp)
    80001c16:	6121                	addi	sp,sp,64
    80001c18:	8082                	ret

0000000080001c1a <walkaddr>:
// Look up a virtual address, return the physical address,
// or 0 if not mapped.
// Can only be used to look up user pages.
uint64
walkaddr(pagetable_t pagetable, uint64 va)
{
    80001c1a:	7179                	addi	sp,sp,-48
    80001c1c:	f406                	sd	ra,40(sp)
    80001c1e:	f022                	sd	s0,32(sp)
    80001c20:	1800                	addi	s0,sp,48
    80001c22:	fca43c23          	sd	a0,-40(s0)
    80001c26:	fcb43823          	sd	a1,-48(s0)
  pte_t *pte;
  uint64 pa;

  if(va >= MAXVA)
    80001c2a:	fd043703          	ld	a4,-48(s0)
    80001c2e:	57fd                	li	a5,-1
    80001c30:	83e9                	srli	a5,a5,0x1a
    80001c32:	00e7f463          	bgeu	a5,a4,80001c3a <walkaddr+0x20>
    return 0;
    80001c36:	4781                	li	a5,0
    80001c38:	a881                	j	80001c88 <walkaddr+0x6e>

  pte = walk(pagetable, va, 0);
    80001c3a:	4601                	li	a2,0
    80001c3c:	fd043583          	ld	a1,-48(s0)
    80001c40:	fd843503          	ld	a0,-40(s0)
    80001c44:	00000097          	auipc	ra,0x0
    80001c48:	ee4080e7          	jalr	-284(ra) # 80001b28 <walk>
    80001c4c:	fea43423          	sd	a0,-24(s0)
  if(pte == 0)
    80001c50:	fe843783          	ld	a5,-24(s0)
    80001c54:	e399                	bnez	a5,80001c5a <walkaddr+0x40>
    return 0;
    80001c56:	4781                	li	a5,0
    80001c58:	a805                	j	80001c88 <walkaddr+0x6e>
  if((*pte & PTE_V) == 0)
    80001c5a:	fe843783          	ld	a5,-24(s0)
    80001c5e:	639c                	ld	a5,0(a5)
    80001c60:	8b85                	andi	a5,a5,1
    80001c62:	e399                	bnez	a5,80001c68 <walkaddr+0x4e>
    return 0;
    80001c64:	4781                	li	a5,0
    80001c66:	a00d                	j	80001c88 <walkaddr+0x6e>
  if((*pte & PTE_U) == 0)
    80001c68:	fe843783          	ld	a5,-24(s0)
    80001c6c:	639c                	ld	a5,0(a5)
    80001c6e:	8bc1                	andi	a5,a5,16
    80001c70:	e399                	bnez	a5,80001c76 <walkaddr+0x5c>
    return 0;
    80001c72:	4781                	li	a5,0
    80001c74:	a811                	j	80001c88 <walkaddr+0x6e>
  pa = PTE2PA(*pte);
    80001c76:	fe843783          	ld	a5,-24(s0)
    80001c7a:	639c                	ld	a5,0(a5)
    80001c7c:	83a9                	srli	a5,a5,0xa
    80001c7e:	07b2                	slli	a5,a5,0xc
    80001c80:	fef43023          	sd	a5,-32(s0)
  return pa;
    80001c84:	fe043783          	ld	a5,-32(s0)
}
    80001c88:	853e                	mv	a0,a5
    80001c8a:	70a2                	ld	ra,40(sp)
    80001c8c:	7402                	ld	s0,32(sp)
    80001c8e:	6145                	addi	sp,sp,48
    80001c90:	8082                	ret

0000000080001c92 <kvmmap>:
// add a mapping to the kernel page table.
// only used when booting.
// does not flush TLB or enable paging.
void
kvmmap(pagetable_t kpgtbl, uint64 va, uint64 pa, uint64 sz, int perm)
{
    80001c92:	7139                	addi	sp,sp,-64
    80001c94:	fc06                	sd	ra,56(sp)
    80001c96:	f822                	sd	s0,48(sp)
    80001c98:	0080                	addi	s0,sp,64
    80001c9a:	fea43423          	sd	a0,-24(s0)
    80001c9e:	feb43023          	sd	a1,-32(s0)
    80001ca2:	fcc43c23          	sd	a2,-40(s0)
    80001ca6:	fcd43823          	sd	a3,-48(s0)
    80001caa:	87ba                	mv	a5,a4
    80001cac:	fcf42623          	sw	a5,-52(s0)
  if(mappages(kpgtbl, va, sz, pa, perm) != 0)
    80001cb0:	fcc42783          	lw	a5,-52(s0)
    80001cb4:	873e                	mv	a4,a5
    80001cb6:	fd843683          	ld	a3,-40(s0)
    80001cba:	fd043603          	ld	a2,-48(s0)
    80001cbe:	fe043583          	ld	a1,-32(s0)
    80001cc2:	fe843503          	ld	a0,-24(s0)
    80001cc6:	00000097          	auipc	ra,0x0
    80001cca:	026080e7          	jalr	38(ra) # 80001cec <mappages>
    80001cce:	87aa                	mv	a5,a0
    80001cd0:	cb89                	beqz	a5,80001ce2 <kvmmap+0x50>
    panic("kvmmap");
    80001cd2:	00009517          	auipc	a0,0x9
    80001cd6:	3ee50513          	addi	a0,a0,1006 # 8000b0c0 <etext+0xc0>
    80001cda:	fffff097          	auipc	ra,0xfffff
    80001cde:	fe6080e7          	jalr	-26(ra) # 80000cc0 <panic>
}
    80001ce2:	0001                	nop
    80001ce4:	70e2                	ld	ra,56(sp)
    80001ce6:	7442                	ld	s0,48(sp)
    80001ce8:	6121                	addi	sp,sp,64
    80001cea:	8082                	ret

0000000080001cec <mappages>:
// physical addresses starting at pa. va and size might not
// be page-aligned. Returns 0 on success, -1 if walk() couldn't
// allocate a needed page-table page.
int
mappages(pagetable_t pagetable, uint64 va, uint64 size, uint64 pa, int perm)
{
    80001cec:	711d                	addi	sp,sp,-96
    80001cee:	ec86                	sd	ra,88(sp)
    80001cf0:	e8a2                	sd	s0,80(sp)
    80001cf2:	1080                	addi	s0,sp,96
    80001cf4:	fca43423          	sd	a0,-56(s0)
    80001cf8:	fcb43023          	sd	a1,-64(s0)
    80001cfc:	fac43c23          	sd	a2,-72(s0)
    80001d00:	fad43823          	sd	a3,-80(s0)
    80001d04:	87ba                	mv	a5,a4
    80001d06:	faf42623          	sw	a5,-84(s0)
  uint64 a, last;
  pte_t *pte;

  if(size == 0)
    80001d0a:	fb843783          	ld	a5,-72(s0)
    80001d0e:	eb89                	bnez	a5,80001d20 <mappages+0x34>
    panic("mappages: size");
    80001d10:	00009517          	auipc	a0,0x9
    80001d14:	3b850513          	addi	a0,a0,952 # 8000b0c8 <etext+0xc8>
    80001d18:	fffff097          	auipc	ra,0xfffff
    80001d1c:	fa8080e7          	jalr	-88(ra) # 80000cc0 <panic>
  
  a = PGROUNDDOWN(va);
    80001d20:	fc043703          	ld	a4,-64(s0)
    80001d24:	77fd                	lui	a5,0xfffff
    80001d26:	8ff9                	and	a5,a5,a4
    80001d28:	fef43423          	sd	a5,-24(s0)
  last = PGROUNDDOWN(va + size - 1);
    80001d2c:	fc043703          	ld	a4,-64(s0)
    80001d30:	fb843783          	ld	a5,-72(s0)
    80001d34:	97ba                	add	a5,a5,a4
    80001d36:	fff78713          	addi	a4,a5,-1 # ffffffffffffefff <end+0xffffffff7ffda2b7>
    80001d3a:	77fd                	lui	a5,0xfffff
    80001d3c:	8ff9                	and	a5,a5,a4
    80001d3e:	fef43023          	sd	a5,-32(s0)
  for(;;){
    if((pte = walk(pagetable, a, 1)) == 0)
    80001d42:	4605                	li	a2,1
    80001d44:	fe843583          	ld	a1,-24(s0)
    80001d48:	fc843503          	ld	a0,-56(s0)
    80001d4c:	00000097          	auipc	ra,0x0
    80001d50:	ddc080e7          	jalr	-548(ra) # 80001b28 <walk>
    80001d54:	fca43c23          	sd	a0,-40(s0)
    80001d58:	fd843783          	ld	a5,-40(s0)
    80001d5c:	e399                	bnez	a5,80001d62 <mappages+0x76>
      return -1;
    80001d5e:	57fd                	li	a5,-1
    80001d60:	a085                	j	80001dc0 <mappages+0xd4>
    if(*pte & PTE_V)
    80001d62:	fd843783          	ld	a5,-40(s0)
    80001d66:	639c                	ld	a5,0(a5)
    80001d68:	8b85                	andi	a5,a5,1
    80001d6a:	cb89                	beqz	a5,80001d7c <mappages+0x90>
      panic("mappages: remap");
    80001d6c:	00009517          	auipc	a0,0x9
    80001d70:	36c50513          	addi	a0,a0,876 # 8000b0d8 <etext+0xd8>
    80001d74:	fffff097          	auipc	ra,0xfffff
    80001d78:	f4c080e7          	jalr	-180(ra) # 80000cc0 <panic>
    *pte = PA2PTE(pa) | perm | PTE_V;
    80001d7c:	fb043783          	ld	a5,-80(s0)
    80001d80:	83b1                	srli	a5,a5,0xc
    80001d82:	00a79713          	slli	a4,a5,0xa
    80001d86:	fac42783          	lw	a5,-84(s0)
    80001d8a:	8fd9                	or	a5,a5,a4
    80001d8c:	0017e713          	ori	a4,a5,1
    80001d90:	fd843783          	ld	a5,-40(s0)
    80001d94:	e398                	sd	a4,0(a5)
    if(a == last)
    80001d96:	fe843703          	ld	a4,-24(s0)
    80001d9a:	fe043783          	ld	a5,-32(s0)
    80001d9e:	00f70f63          	beq	a4,a5,80001dbc <mappages+0xd0>
      break;
    a += PGSIZE;
    80001da2:	fe843703          	ld	a4,-24(s0)
    80001da6:	6785                	lui	a5,0x1
    80001da8:	97ba                	add	a5,a5,a4
    80001daa:	fef43423          	sd	a5,-24(s0)
    pa += PGSIZE;
    80001dae:	fb043703          	ld	a4,-80(s0)
    80001db2:	6785                	lui	a5,0x1
    80001db4:	97ba                	add	a5,a5,a4
    80001db6:	faf43823          	sd	a5,-80(s0)
    if((pte = walk(pagetable, a, 1)) == 0)
    80001dba:	b761                	j	80001d42 <mappages+0x56>
      break;
    80001dbc:	0001                	nop
  }
  return 0;
    80001dbe:	4781                	li	a5,0
}
    80001dc0:	853e                	mv	a0,a5
    80001dc2:	60e6                	ld	ra,88(sp)
    80001dc4:	6446                	ld	s0,80(sp)
    80001dc6:	6125                	addi	sp,sp,96
    80001dc8:	8082                	ret

0000000080001dca <uvmunmap>:
// Remove npages of mappings starting from va. va must be
// page-aligned. The mappings must exist.
// Optionally free the physical memory.
void
uvmunmap(pagetable_t pagetable, uint64 va, uint64 npages, int do_free)
{
    80001dca:	715d                	addi	sp,sp,-80
    80001dcc:	e486                	sd	ra,72(sp)
    80001dce:	e0a2                	sd	s0,64(sp)
    80001dd0:	0880                	addi	s0,sp,80
    80001dd2:	fca43423          	sd	a0,-56(s0)
    80001dd6:	fcb43023          	sd	a1,-64(s0)
    80001dda:	fac43c23          	sd	a2,-72(s0)
    80001dde:	87b6                	mv	a5,a3
    80001de0:	faf42a23          	sw	a5,-76(s0)
  uint64 a;
  pte_t *pte;

  if((va % PGSIZE) != 0)
    80001de4:	fc043703          	ld	a4,-64(s0)
    80001de8:	6785                	lui	a5,0x1
    80001dea:	17fd                	addi	a5,a5,-1 # fff <_entry-0x7ffff001>
    80001dec:	8ff9                	and	a5,a5,a4
    80001dee:	cb89                	beqz	a5,80001e00 <uvmunmap+0x36>
    panic("uvmunmap: not aligned");
    80001df0:	00009517          	auipc	a0,0x9
    80001df4:	2f850513          	addi	a0,a0,760 # 8000b0e8 <etext+0xe8>
    80001df8:	fffff097          	auipc	ra,0xfffff
    80001dfc:	ec8080e7          	jalr	-312(ra) # 80000cc0 <panic>

  for(a = va; a < va + npages*PGSIZE; a += PGSIZE){
    80001e00:	fc043783          	ld	a5,-64(s0)
    80001e04:	fef43423          	sd	a5,-24(s0)
    80001e08:	a045                	j	80001ea8 <uvmunmap+0xde>
    if((pte = walk(pagetable, a, 0)) == 0)
    80001e0a:	4601                	li	a2,0
    80001e0c:	fe843583          	ld	a1,-24(s0)
    80001e10:	fc843503          	ld	a0,-56(s0)
    80001e14:	00000097          	auipc	ra,0x0
    80001e18:	d14080e7          	jalr	-748(ra) # 80001b28 <walk>
    80001e1c:	fea43023          	sd	a0,-32(s0)
    80001e20:	fe043783          	ld	a5,-32(s0)
    80001e24:	eb89                	bnez	a5,80001e36 <uvmunmap+0x6c>
      panic("uvmunmap: walk");
    80001e26:	00009517          	auipc	a0,0x9
    80001e2a:	2da50513          	addi	a0,a0,730 # 8000b100 <etext+0x100>
    80001e2e:	fffff097          	auipc	ra,0xfffff
    80001e32:	e92080e7          	jalr	-366(ra) # 80000cc0 <panic>
    if((*pte & PTE_V) == 0)
    80001e36:	fe043783          	ld	a5,-32(s0)
    80001e3a:	639c                	ld	a5,0(a5)
    80001e3c:	8b85                	andi	a5,a5,1
    80001e3e:	eb89                	bnez	a5,80001e50 <uvmunmap+0x86>
      panic("uvmunmap: not mapped");
    80001e40:	00009517          	auipc	a0,0x9
    80001e44:	2d050513          	addi	a0,a0,720 # 8000b110 <etext+0x110>
    80001e48:	fffff097          	auipc	ra,0xfffff
    80001e4c:	e78080e7          	jalr	-392(ra) # 80000cc0 <panic>
    if(PTE_FLAGS(*pte) == PTE_V)
    80001e50:	fe043783          	ld	a5,-32(s0)
    80001e54:	639c                	ld	a5,0(a5)
    80001e56:	3ff7f713          	andi	a4,a5,1023
    80001e5a:	4785                	li	a5,1
    80001e5c:	00f71a63          	bne	a4,a5,80001e70 <uvmunmap+0xa6>
      panic("uvmunmap: not a leaf");
    80001e60:	00009517          	auipc	a0,0x9
    80001e64:	2c850513          	addi	a0,a0,712 # 8000b128 <etext+0x128>
    80001e68:	fffff097          	auipc	ra,0xfffff
    80001e6c:	e58080e7          	jalr	-424(ra) # 80000cc0 <panic>
    if(do_free){
    80001e70:	fb442783          	lw	a5,-76(s0)
    80001e74:	2781                	sext.w	a5,a5
    80001e76:	cf99                	beqz	a5,80001e94 <uvmunmap+0xca>
      uint64 pa = PTE2PA(*pte);
    80001e78:	fe043783          	ld	a5,-32(s0)
    80001e7c:	639c                	ld	a5,0(a5)
    80001e7e:	83a9                	srli	a5,a5,0xa
    80001e80:	07b2                	slli	a5,a5,0xc
    80001e82:	fcf43c23          	sd	a5,-40(s0)
      kfree((void*)pa);
    80001e86:	fd843783          	ld	a5,-40(s0)
    80001e8a:	853e                	mv	a0,a5
    80001e8c:	fffff097          	auipc	ra,0xfffff
    80001e90:	234080e7          	jalr	564(ra) # 800010c0 <kfree>
    }
    *pte = 0;
    80001e94:	fe043783          	ld	a5,-32(s0)
    80001e98:	0007b023          	sd	zero,0(a5)
  for(a = va; a < va + npages*PGSIZE; a += PGSIZE){
    80001e9c:	fe843703          	ld	a4,-24(s0)
    80001ea0:	6785                	lui	a5,0x1
    80001ea2:	97ba                	add	a5,a5,a4
    80001ea4:	fef43423          	sd	a5,-24(s0)
    80001ea8:	fb843783          	ld	a5,-72(s0)
    80001eac:	00c79713          	slli	a4,a5,0xc
    80001eb0:	fc043783          	ld	a5,-64(s0)
    80001eb4:	97ba                	add	a5,a5,a4
    80001eb6:	fe843703          	ld	a4,-24(s0)
    80001eba:	f4f768e3          	bltu	a4,a5,80001e0a <uvmunmap+0x40>
  }
}
    80001ebe:	0001                	nop
    80001ec0:	0001                	nop
    80001ec2:	60a6                	ld	ra,72(sp)
    80001ec4:	6406                	ld	s0,64(sp)
    80001ec6:	6161                	addi	sp,sp,80
    80001ec8:	8082                	ret

0000000080001eca <uvmcreate>:

// create an empty user page table.
// returns 0 if out of memory.
pagetable_t
uvmcreate()
{
    80001eca:	1101                	addi	sp,sp,-32
    80001ecc:	ec06                	sd	ra,24(sp)
    80001ece:	e822                	sd	s0,16(sp)
    80001ed0:	1000                	addi	s0,sp,32
  pagetable_t pagetable;
  pagetable = (pagetable_t) kalloc();
    80001ed2:	fffff097          	auipc	ra,0xfffff
    80001ed6:	292080e7          	jalr	658(ra) # 80001164 <kalloc>
    80001eda:	fea43423          	sd	a0,-24(s0)
  if(pagetable == 0)
    80001ede:	fe843783          	ld	a5,-24(s0)
    80001ee2:	e399                	bnez	a5,80001ee8 <uvmcreate+0x1e>
    return 0;
    80001ee4:	4781                	li	a5,0
    80001ee6:	a819                	j	80001efc <uvmcreate+0x32>
  memset(pagetable, 0, PGSIZE);
    80001ee8:	6605                	lui	a2,0x1
    80001eea:	4581                	li	a1,0
    80001eec:	fe843503          	ld	a0,-24(s0)
    80001ef0:	fffff097          	auipc	ra,0xfffff
    80001ef4:	5a8080e7          	jalr	1448(ra) # 80001498 <memset>
  return pagetable;
    80001ef8:	fe843783          	ld	a5,-24(s0)
}
    80001efc:	853e                	mv	a0,a5
    80001efe:	60e2                	ld	ra,24(sp)
    80001f00:	6442                	ld	s0,16(sp)
    80001f02:	6105                	addi	sp,sp,32
    80001f04:	8082                	ret

0000000080001f06 <uvmfirst>:
// Load the user initcode into address 0 of pagetable,
// for the very first process.
// sz must be less than a page.
void
uvmfirst(pagetable_t pagetable, uchar *src, uint sz)
{
    80001f06:	7139                	addi	sp,sp,-64
    80001f08:	fc06                	sd	ra,56(sp)
    80001f0a:	f822                	sd	s0,48(sp)
    80001f0c:	0080                	addi	s0,sp,64
    80001f0e:	fca43c23          	sd	a0,-40(s0)
    80001f12:	fcb43823          	sd	a1,-48(s0)
    80001f16:	87b2                	mv	a5,a2
    80001f18:	fcf42623          	sw	a5,-52(s0)
  char *mem;

  if(sz >= PGSIZE)
    80001f1c:	fcc42783          	lw	a5,-52(s0)
    80001f20:	0007871b          	sext.w	a4,a5
    80001f24:	6785                	lui	a5,0x1
    80001f26:	00f76a63          	bltu	a4,a5,80001f3a <uvmfirst+0x34>
    panic("uvmfirst: more than a page");
    80001f2a:	00009517          	auipc	a0,0x9
    80001f2e:	21650513          	addi	a0,a0,534 # 8000b140 <etext+0x140>
    80001f32:	fffff097          	auipc	ra,0xfffff
    80001f36:	d8e080e7          	jalr	-626(ra) # 80000cc0 <panic>
  mem = kalloc();
    80001f3a:	fffff097          	auipc	ra,0xfffff
    80001f3e:	22a080e7          	jalr	554(ra) # 80001164 <kalloc>
    80001f42:	fea43423          	sd	a0,-24(s0)
  memset(mem, 0, PGSIZE);
    80001f46:	6605                	lui	a2,0x1
    80001f48:	4581                	li	a1,0
    80001f4a:	fe843503          	ld	a0,-24(s0)
    80001f4e:	fffff097          	auipc	ra,0xfffff
    80001f52:	54a080e7          	jalr	1354(ra) # 80001498 <memset>
  mappages(pagetable, 0, PGSIZE, (uint64)mem, PTE_W|PTE_R|PTE_X|PTE_U);
    80001f56:	fe843783          	ld	a5,-24(s0)
    80001f5a:	4779                	li	a4,30
    80001f5c:	86be                	mv	a3,a5
    80001f5e:	6605                	lui	a2,0x1
    80001f60:	4581                	li	a1,0
    80001f62:	fd843503          	ld	a0,-40(s0)
    80001f66:	00000097          	auipc	ra,0x0
    80001f6a:	d86080e7          	jalr	-634(ra) # 80001cec <mappages>
  memmove(mem, src, sz);
    80001f6e:	fcc42783          	lw	a5,-52(s0)
    80001f72:	863e                	mv	a2,a5
    80001f74:	fd043583          	ld	a1,-48(s0)
    80001f78:	fe843503          	ld	a0,-24(s0)
    80001f7c:	fffff097          	auipc	ra,0xfffff
    80001f80:	608080e7          	jalr	1544(ra) # 80001584 <memmove>
}
    80001f84:	0001                	nop
    80001f86:	70e2                	ld	ra,56(sp)
    80001f88:	7442                	ld	s0,48(sp)
    80001f8a:	6121                	addi	sp,sp,64
    80001f8c:	8082                	ret

0000000080001f8e <uvmalloc>:

// Allocate PTEs and physical memory to grow process from oldsz to
// newsz, which need not be page aligned.  Returns new size or 0 on error.
uint64
uvmalloc(pagetable_t pagetable, uint64 oldsz, uint64 newsz, int xperm)
{
    80001f8e:	7139                	addi	sp,sp,-64
    80001f90:	fc06                	sd	ra,56(sp)
    80001f92:	f822                	sd	s0,48(sp)
    80001f94:	0080                	addi	s0,sp,64
    80001f96:	fca43c23          	sd	a0,-40(s0)
    80001f9a:	fcb43823          	sd	a1,-48(s0)
    80001f9e:	fcc43423          	sd	a2,-56(s0)
    80001fa2:	87b6                	mv	a5,a3
    80001fa4:	fcf42223          	sw	a5,-60(s0)
  char *mem;
  uint64 a;

  if(newsz < oldsz)
    80001fa8:	fc843703          	ld	a4,-56(s0)
    80001fac:	fd043783          	ld	a5,-48(s0)
    80001fb0:	00f77563          	bgeu	a4,a5,80001fba <uvmalloc+0x2c>
    return oldsz;
    80001fb4:	fd043783          	ld	a5,-48(s0)
    80001fb8:	a87d                	j	80002076 <uvmalloc+0xe8>

  oldsz = PGROUNDUP(oldsz);
    80001fba:	fd043703          	ld	a4,-48(s0)
    80001fbe:	6785                	lui	a5,0x1
    80001fc0:	17fd                	addi	a5,a5,-1 # fff <_entry-0x7ffff001>
    80001fc2:	973e                	add	a4,a4,a5
    80001fc4:	77fd                	lui	a5,0xfffff
    80001fc6:	8ff9                	and	a5,a5,a4
    80001fc8:	fcf43823          	sd	a5,-48(s0)
  for(a = oldsz; a < newsz; a += PGSIZE){
    80001fcc:	fd043783          	ld	a5,-48(s0)
    80001fd0:	fef43423          	sd	a5,-24(s0)
    80001fd4:	a849                	j	80002066 <uvmalloc+0xd8>
    mem = kalloc();
    80001fd6:	fffff097          	auipc	ra,0xfffff
    80001fda:	18e080e7          	jalr	398(ra) # 80001164 <kalloc>
    80001fde:	fea43023          	sd	a0,-32(s0)
    if(mem == 0){
    80001fe2:	fe043783          	ld	a5,-32(s0)
    80001fe6:	ef89                	bnez	a5,80002000 <uvmalloc+0x72>
      uvmdealloc(pagetable, a, oldsz);
    80001fe8:	fd043603          	ld	a2,-48(s0)
    80001fec:	fe843583          	ld	a1,-24(s0)
    80001ff0:	fd843503          	ld	a0,-40(s0)
    80001ff4:	00000097          	auipc	ra,0x0
    80001ff8:	08c080e7          	jalr	140(ra) # 80002080 <uvmdealloc>
      return 0;
    80001ffc:	4781                	li	a5,0
    80001ffe:	a8a5                	j	80002076 <uvmalloc+0xe8>
    }
    memset(mem, 0, PGSIZE);
    80002000:	6605                	lui	a2,0x1
    80002002:	4581                	li	a1,0
    80002004:	fe043503          	ld	a0,-32(s0)
    80002008:	fffff097          	auipc	ra,0xfffff
    8000200c:	490080e7          	jalr	1168(ra) # 80001498 <memset>
    if(mappages(pagetable, a, PGSIZE, (uint64)mem, PTE_R|PTE_U|xperm) != 0){
    80002010:	fe043783          	ld	a5,-32(s0)
    80002014:	fc442703          	lw	a4,-60(s0)
    80002018:	01276713          	ori	a4,a4,18
    8000201c:	2701                	sext.w	a4,a4
    8000201e:	86be                	mv	a3,a5
    80002020:	6605                	lui	a2,0x1
    80002022:	fe843583          	ld	a1,-24(s0)
    80002026:	fd843503          	ld	a0,-40(s0)
    8000202a:	00000097          	auipc	ra,0x0
    8000202e:	cc2080e7          	jalr	-830(ra) # 80001cec <mappages>
    80002032:	87aa                	mv	a5,a0
    80002034:	c39d                	beqz	a5,8000205a <uvmalloc+0xcc>
      kfree(mem);
    80002036:	fe043503          	ld	a0,-32(s0)
    8000203a:	fffff097          	auipc	ra,0xfffff
    8000203e:	086080e7          	jalr	134(ra) # 800010c0 <kfree>
      uvmdealloc(pagetable, a, oldsz);
    80002042:	fd043603          	ld	a2,-48(s0)
    80002046:	fe843583          	ld	a1,-24(s0)
    8000204a:	fd843503          	ld	a0,-40(s0)
    8000204e:	00000097          	auipc	ra,0x0
    80002052:	032080e7          	jalr	50(ra) # 80002080 <uvmdealloc>
      return 0;
    80002056:	4781                	li	a5,0
    80002058:	a839                	j	80002076 <uvmalloc+0xe8>
  for(a = oldsz; a < newsz; a += PGSIZE){
    8000205a:	fe843703          	ld	a4,-24(s0)
    8000205e:	6785                	lui	a5,0x1
    80002060:	97ba                	add	a5,a5,a4
    80002062:	fef43423          	sd	a5,-24(s0)
    80002066:	fe843703          	ld	a4,-24(s0)
    8000206a:	fc843783          	ld	a5,-56(s0)
    8000206e:	f6f764e3          	bltu	a4,a5,80001fd6 <uvmalloc+0x48>
    }
  }
  return newsz;
    80002072:	fc843783          	ld	a5,-56(s0)
}
    80002076:	853e                	mv	a0,a5
    80002078:	70e2                	ld	ra,56(sp)
    8000207a:	7442                	ld	s0,48(sp)
    8000207c:	6121                	addi	sp,sp,64
    8000207e:	8082                	ret

0000000080002080 <uvmdealloc>:
// newsz.  oldsz and newsz need not be page-aligned, nor does newsz
// need to be less than oldsz.  oldsz can be larger than the actual
// process size.  Returns the new process size.
uint64
uvmdealloc(pagetable_t pagetable, uint64 oldsz, uint64 newsz)
{
    80002080:	7139                	addi	sp,sp,-64
    80002082:	fc06                	sd	ra,56(sp)
    80002084:	f822                	sd	s0,48(sp)
    80002086:	0080                	addi	s0,sp,64
    80002088:	fca43c23          	sd	a0,-40(s0)
    8000208c:	fcb43823          	sd	a1,-48(s0)
    80002090:	fcc43423          	sd	a2,-56(s0)
  if(newsz >= oldsz)
    80002094:	fc843703          	ld	a4,-56(s0)
    80002098:	fd043783          	ld	a5,-48(s0)
    8000209c:	00f76563          	bltu	a4,a5,800020a6 <uvmdealloc+0x26>
    return oldsz;
    800020a0:	fd043783          	ld	a5,-48(s0)
    800020a4:	a885                	j	80002114 <uvmdealloc+0x94>

  if(PGROUNDUP(newsz) < PGROUNDUP(oldsz)){
    800020a6:	fc843703          	ld	a4,-56(s0)
    800020aa:	6785                	lui	a5,0x1
    800020ac:	17fd                	addi	a5,a5,-1 # fff <_entry-0x7ffff001>
    800020ae:	973e                	add	a4,a4,a5
    800020b0:	77fd                	lui	a5,0xfffff
    800020b2:	8f7d                	and	a4,a4,a5
    800020b4:	fd043683          	ld	a3,-48(s0)
    800020b8:	6785                	lui	a5,0x1
    800020ba:	17fd                	addi	a5,a5,-1 # fff <_entry-0x7ffff001>
    800020bc:	96be                	add	a3,a3,a5
    800020be:	77fd                	lui	a5,0xfffff
    800020c0:	8ff5                	and	a5,a5,a3
    800020c2:	04f77763          	bgeu	a4,a5,80002110 <uvmdealloc+0x90>
    int npages = (PGROUNDUP(oldsz) - PGROUNDUP(newsz)) / PGSIZE;
    800020c6:	fd043703          	ld	a4,-48(s0)
    800020ca:	6785                	lui	a5,0x1
    800020cc:	17fd                	addi	a5,a5,-1 # fff <_entry-0x7ffff001>
    800020ce:	973e                	add	a4,a4,a5
    800020d0:	77fd                	lui	a5,0xfffff
    800020d2:	8f7d                	and	a4,a4,a5
    800020d4:	fc843683          	ld	a3,-56(s0)
    800020d8:	6785                	lui	a5,0x1
    800020da:	17fd                	addi	a5,a5,-1 # fff <_entry-0x7ffff001>
    800020dc:	96be                	add	a3,a3,a5
    800020de:	77fd                	lui	a5,0xfffff
    800020e0:	8ff5                	and	a5,a5,a3
    800020e2:	40f707b3          	sub	a5,a4,a5
    800020e6:	83b1                	srli	a5,a5,0xc
    800020e8:	fef42623          	sw	a5,-20(s0)
    uvmunmap(pagetable, PGROUNDUP(newsz), npages, 1);
    800020ec:	fc843703          	ld	a4,-56(s0)
    800020f0:	6785                	lui	a5,0x1
    800020f2:	17fd                	addi	a5,a5,-1 # fff <_entry-0x7ffff001>
    800020f4:	973e                	add	a4,a4,a5
    800020f6:	77fd                	lui	a5,0xfffff
    800020f8:	8ff9                	and	a5,a5,a4
    800020fa:	fec42703          	lw	a4,-20(s0)
    800020fe:	4685                	li	a3,1
    80002100:	863a                	mv	a2,a4
    80002102:	85be                	mv	a1,a5
    80002104:	fd843503          	ld	a0,-40(s0)
    80002108:	00000097          	auipc	ra,0x0
    8000210c:	cc2080e7          	jalr	-830(ra) # 80001dca <uvmunmap>
  }

  return newsz;
    80002110:	fc843783          	ld	a5,-56(s0)
}
    80002114:	853e                	mv	a0,a5
    80002116:	70e2                	ld	ra,56(sp)
    80002118:	7442                	ld	s0,48(sp)
    8000211a:	6121                	addi	sp,sp,64
    8000211c:	8082                	ret

000000008000211e <freewalk>:

// Recursively free page-table pages.
// All leaf mappings must already have been removed.
void
freewalk(pagetable_t pagetable)
{
    8000211e:	7139                	addi	sp,sp,-64
    80002120:	fc06                	sd	ra,56(sp)
    80002122:	f822                	sd	s0,48(sp)
    80002124:	0080                	addi	s0,sp,64
    80002126:	fca43423          	sd	a0,-56(s0)
  // there are 2^9 = 512 PTEs in a page table.
  for(int i = 0; i < 512; i++){
    8000212a:	fe042623          	sw	zero,-20(s0)
    8000212e:	a88d                	j	800021a0 <freewalk+0x82>
    pte_t pte = pagetable[i];
    80002130:	fec42783          	lw	a5,-20(s0)
    80002134:	078e                	slli	a5,a5,0x3
    80002136:	fc843703          	ld	a4,-56(s0)
    8000213a:	97ba                	add	a5,a5,a4
    8000213c:	639c                	ld	a5,0(a5)
    8000213e:	fef43023          	sd	a5,-32(s0)
    if((pte & PTE_V) && (pte & (PTE_R|PTE_W|PTE_X)) == 0){
    80002142:	fe043783          	ld	a5,-32(s0)
    80002146:	8b85                	andi	a5,a5,1
    80002148:	cb9d                	beqz	a5,8000217e <freewalk+0x60>
    8000214a:	fe043783          	ld	a5,-32(s0)
    8000214e:	8bb9                	andi	a5,a5,14
    80002150:	e79d                	bnez	a5,8000217e <freewalk+0x60>
      // this PTE points to a lower-level page table.
      uint64 child = PTE2PA(pte);
    80002152:	fe043783          	ld	a5,-32(s0)
    80002156:	83a9                	srli	a5,a5,0xa
    80002158:	07b2                	slli	a5,a5,0xc
    8000215a:	fcf43c23          	sd	a5,-40(s0)
      freewalk((pagetable_t)child);
    8000215e:	fd843783          	ld	a5,-40(s0)
    80002162:	853e                	mv	a0,a5
    80002164:	00000097          	auipc	ra,0x0
    80002168:	fba080e7          	jalr	-70(ra) # 8000211e <freewalk>
      pagetable[i] = 0;
    8000216c:	fec42783          	lw	a5,-20(s0)
    80002170:	078e                	slli	a5,a5,0x3
    80002172:	fc843703          	ld	a4,-56(s0)
    80002176:	97ba                	add	a5,a5,a4
    80002178:	0007b023          	sd	zero,0(a5) # fffffffffffff000 <end+0xffffffff7ffda2b8>
    if((pte & PTE_V) && (pte & (PTE_R|PTE_W|PTE_X)) == 0){
    8000217c:	a829                	j	80002196 <freewalk+0x78>
    } else if(pte & PTE_V){
    8000217e:	fe043783          	ld	a5,-32(s0)
    80002182:	8b85                	andi	a5,a5,1
    80002184:	cb89                	beqz	a5,80002196 <freewalk+0x78>
      panic("freewalk: leaf");
    80002186:	00009517          	auipc	a0,0x9
    8000218a:	fda50513          	addi	a0,a0,-38 # 8000b160 <etext+0x160>
    8000218e:	fffff097          	auipc	ra,0xfffff
    80002192:	b32080e7          	jalr	-1230(ra) # 80000cc0 <panic>
  for(int i = 0; i < 512; i++){
    80002196:	fec42783          	lw	a5,-20(s0)
    8000219a:	2785                	addiw	a5,a5,1
    8000219c:	fef42623          	sw	a5,-20(s0)
    800021a0:	fec42783          	lw	a5,-20(s0)
    800021a4:	0007871b          	sext.w	a4,a5
    800021a8:	1ff00793          	li	a5,511
    800021ac:	f8e7d2e3          	bge	a5,a4,80002130 <freewalk+0x12>
    }
  }
  kfree((void*)pagetable);
    800021b0:	fc843503          	ld	a0,-56(s0)
    800021b4:	fffff097          	auipc	ra,0xfffff
    800021b8:	f0c080e7          	jalr	-244(ra) # 800010c0 <kfree>
}
    800021bc:	0001                	nop
    800021be:	70e2                	ld	ra,56(sp)
    800021c0:	7442                	ld	s0,48(sp)
    800021c2:	6121                	addi	sp,sp,64
    800021c4:	8082                	ret

00000000800021c6 <uvmfree>:

// Free user memory pages,
// then free page-table pages.
void
uvmfree(pagetable_t pagetable, uint64 sz)
{
    800021c6:	1101                	addi	sp,sp,-32
    800021c8:	ec06                	sd	ra,24(sp)
    800021ca:	e822                	sd	s0,16(sp)
    800021cc:	1000                	addi	s0,sp,32
    800021ce:	fea43423          	sd	a0,-24(s0)
    800021d2:	feb43023          	sd	a1,-32(s0)
  if(sz > 0)
    800021d6:	fe043783          	ld	a5,-32(s0)
    800021da:	c385                	beqz	a5,800021fa <uvmfree+0x34>
    uvmunmap(pagetable, 0, PGROUNDUP(sz)/PGSIZE, 1);
    800021dc:	fe043703          	ld	a4,-32(s0)
    800021e0:	6785                	lui	a5,0x1
    800021e2:	17fd                	addi	a5,a5,-1 # fff <_entry-0x7ffff001>
    800021e4:	97ba                	add	a5,a5,a4
    800021e6:	83b1                	srli	a5,a5,0xc
    800021e8:	4685                	li	a3,1
    800021ea:	863e                	mv	a2,a5
    800021ec:	4581                	li	a1,0
    800021ee:	fe843503          	ld	a0,-24(s0)
    800021f2:	00000097          	auipc	ra,0x0
    800021f6:	bd8080e7          	jalr	-1064(ra) # 80001dca <uvmunmap>
  freewalk(pagetable);
    800021fa:	fe843503          	ld	a0,-24(s0)
    800021fe:	00000097          	auipc	ra,0x0
    80002202:	f20080e7          	jalr	-224(ra) # 8000211e <freewalk>
}
    80002206:	0001                	nop
    80002208:	60e2                	ld	ra,24(sp)
    8000220a:	6442                	ld	s0,16(sp)
    8000220c:	6105                	addi	sp,sp,32
    8000220e:	8082                	ret

0000000080002210 <uvmcopy>:
// physical memory.
// returns 0 on success, -1 on failure.
// frees any allocated pages on failure.
int
uvmcopy(pagetable_t old, pagetable_t new, uint64 sz)
{
    80002210:	711d                	addi	sp,sp,-96
    80002212:	ec86                	sd	ra,88(sp)
    80002214:	e8a2                	sd	s0,80(sp)
    80002216:	1080                	addi	s0,sp,96
    80002218:	faa43c23          	sd	a0,-72(s0)
    8000221c:	fab43823          	sd	a1,-80(s0)
    80002220:	fac43423          	sd	a2,-88(s0)
  pte_t *pte;
  uint64 pa, i;
  uint flags;
  char *mem;

  for(i = 0; i < sz; i += PGSIZE){
    80002224:	fe043423          	sd	zero,-24(s0)
    80002228:	a0d9                	j	800022ee <uvmcopy+0xde>
    if((pte = walk(old, i, 0)) == 0)
    8000222a:	4601                	li	a2,0
    8000222c:	fe843583          	ld	a1,-24(s0)
    80002230:	fb843503          	ld	a0,-72(s0)
    80002234:	00000097          	auipc	ra,0x0
    80002238:	8f4080e7          	jalr	-1804(ra) # 80001b28 <walk>
    8000223c:	fea43023          	sd	a0,-32(s0)
    80002240:	fe043783          	ld	a5,-32(s0)
    80002244:	eb89                	bnez	a5,80002256 <uvmcopy+0x46>
      panic("uvmcopy: pte should exist");
    80002246:	00009517          	auipc	a0,0x9
    8000224a:	f2a50513          	addi	a0,a0,-214 # 8000b170 <etext+0x170>
    8000224e:	fffff097          	auipc	ra,0xfffff
    80002252:	a72080e7          	jalr	-1422(ra) # 80000cc0 <panic>
    if((*pte & PTE_V) == 0)
    80002256:	fe043783          	ld	a5,-32(s0)
    8000225a:	639c                	ld	a5,0(a5)
    8000225c:	8b85                	andi	a5,a5,1
    8000225e:	eb89                	bnez	a5,80002270 <uvmcopy+0x60>
      panic("uvmcopy: page not present");
    80002260:	00009517          	auipc	a0,0x9
    80002264:	f3050513          	addi	a0,a0,-208 # 8000b190 <etext+0x190>
    80002268:	fffff097          	auipc	ra,0xfffff
    8000226c:	a58080e7          	jalr	-1448(ra) # 80000cc0 <panic>
    pa = PTE2PA(*pte);
    80002270:	fe043783          	ld	a5,-32(s0)
    80002274:	639c                	ld	a5,0(a5)
    80002276:	83a9                	srli	a5,a5,0xa
    80002278:	07b2                	slli	a5,a5,0xc
    8000227a:	fcf43c23          	sd	a5,-40(s0)
    flags = PTE_FLAGS(*pte);
    8000227e:	fe043783          	ld	a5,-32(s0)
    80002282:	639c                	ld	a5,0(a5)
    80002284:	2781                	sext.w	a5,a5
    80002286:	3ff7f793          	andi	a5,a5,1023
    8000228a:	fcf42a23          	sw	a5,-44(s0)
    if((mem = kalloc()) == 0)
    8000228e:	fffff097          	auipc	ra,0xfffff
    80002292:	ed6080e7          	jalr	-298(ra) # 80001164 <kalloc>
    80002296:	fca43423          	sd	a0,-56(s0)
    8000229a:	fc843783          	ld	a5,-56(s0)
    8000229e:	c3a5                	beqz	a5,800022fe <uvmcopy+0xee>
      goto err;
    memmove(mem, (char*)pa, PGSIZE);
    800022a0:	fd843783          	ld	a5,-40(s0)
    800022a4:	6605                	lui	a2,0x1
    800022a6:	85be                	mv	a1,a5
    800022a8:	fc843503          	ld	a0,-56(s0)
    800022ac:	fffff097          	auipc	ra,0xfffff
    800022b0:	2d8080e7          	jalr	728(ra) # 80001584 <memmove>
    if(mappages(new, i, PGSIZE, (uint64)mem, flags) != 0){
    800022b4:	fc843783          	ld	a5,-56(s0)
    800022b8:	fd442703          	lw	a4,-44(s0)
    800022bc:	86be                	mv	a3,a5
    800022be:	6605                	lui	a2,0x1
    800022c0:	fe843583          	ld	a1,-24(s0)
    800022c4:	fb043503          	ld	a0,-80(s0)
    800022c8:	00000097          	auipc	ra,0x0
    800022cc:	a24080e7          	jalr	-1500(ra) # 80001cec <mappages>
    800022d0:	87aa                	mv	a5,a0
    800022d2:	cb81                	beqz	a5,800022e2 <uvmcopy+0xd2>
      kfree(mem);
    800022d4:	fc843503          	ld	a0,-56(s0)
    800022d8:	fffff097          	auipc	ra,0xfffff
    800022dc:	de8080e7          	jalr	-536(ra) # 800010c0 <kfree>
      goto err;
    800022e0:	a005                	j	80002300 <uvmcopy+0xf0>
  for(i = 0; i < sz; i += PGSIZE){
    800022e2:	fe843703          	ld	a4,-24(s0)
    800022e6:	6785                	lui	a5,0x1
    800022e8:	97ba                	add	a5,a5,a4
    800022ea:	fef43423          	sd	a5,-24(s0)
    800022ee:	fe843703          	ld	a4,-24(s0)
    800022f2:	fa843783          	ld	a5,-88(s0)
    800022f6:	f2f76ae3          	bltu	a4,a5,8000222a <uvmcopy+0x1a>
    }
  }
  return 0;
    800022fa:	4781                	li	a5,0
    800022fc:	a839                	j	8000231a <uvmcopy+0x10a>
      goto err;
    800022fe:	0001                	nop

 err:
  uvmunmap(new, 0, i / PGSIZE, 1);
    80002300:	fe843783          	ld	a5,-24(s0)
    80002304:	83b1                	srli	a5,a5,0xc
    80002306:	4685                	li	a3,1
    80002308:	863e                	mv	a2,a5
    8000230a:	4581                	li	a1,0
    8000230c:	fb043503          	ld	a0,-80(s0)
    80002310:	00000097          	auipc	ra,0x0
    80002314:	aba080e7          	jalr	-1350(ra) # 80001dca <uvmunmap>
  return -1;
    80002318:	57fd                	li	a5,-1
}
    8000231a:	853e                	mv	a0,a5
    8000231c:	60e6                	ld	ra,88(sp)
    8000231e:	6446                	ld	s0,80(sp)
    80002320:	6125                	addi	sp,sp,96
    80002322:	8082                	ret

0000000080002324 <uvmclear>:

// mark a PTE invalid for user access.
// used by exec for the user stack guard page.
void
uvmclear(pagetable_t pagetable, uint64 va)
{
    80002324:	7179                	addi	sp,sp,-48
    80002326:	f406                	sd	ra,40(sp)
    80002328:	f022                	sd	s0,32(sp)
    8000232a:	1800                	addi	s0,sp,48
    8000232c:	fca43c23          	sd	a0,-40(s0)
    80002330:	fcb43823          	sd	a1,-48(s0)
  pte_t *pte;
  
  pte = walk(pagetable, va, 0);
    80002334:	4601                	li	a2,0
    80002336:	fd043583          	ld	a1,-48(s0)
    8000233a:	fd843503          	ld	a0,-40(s0)
    8000233e:	fffff097          	auipc	ra,0xfffff
    80002342:	7ea080e7          	jalr	2026(ra) # 80001b28 <walk>
    80002346:	fea43423          	sd	a0,-24(s0)
  if(pte == 0)
    8000234a:	fe843783          	ld	a5,-24(s0)
    8000234e:	eb89                	bnez	a5,80002360 <uvmclear+0x3c>
    panic("uvmclear");
    80002350:	00009517          	auipc	a0,0x9
    80002354:	e6050513          	addi	a0,a0,-416 # 8000b1b0 <etext+0x1b0>
    80002358:	fffff097          	auipc	ra,0xfffff
    8000235c:	968080e7          	jalr	-1688(ra) # 80000cc0 <panic>
  *pte &= ~PTE_U;
    80002360:	fe843783          	ld	a5,-24(s0)
    80002364:	639c                	ld	a5,0(a5)
    80002366:	fef7f713          	andi	a4,a5,-17
    8000236a:	fe843783          	ld	a5,-24(s0)
    8000236e:	e398                	sd	a4,0(a5)
}
    80002370:	0001                	nop
    80002372:	70a2                	ld	ra,40(sp)
    80002374:	7402                	ld	s0,32(sp)
    80002376:	6145                	addi	sp,sp,48
    80002378:	8082                	ret

000000008000237a <copyout>:
// Copy from kernel to user.
// Copy len bytes from src to virtual address dstva in a given page table.
// Return 0 on success, -1 on error.
int
copyout(pagetable_t pagetable, uint64 dstva, char *src, uint64 len)
{
    8000237a:	715d                	addi	sp,sp,-80
    8000237c:	e486                	sd	ra,72(sp)
    8000237e:	e0a2                	sd	s0,64(sp)
    80002380:	0880                	addi	s0,sp,80
    80002382:	fca43423          	sd	a0,-56(s0)
    80002386:	fcb43023          	sd	a1,-64(s0)
    8000238a:	fac43c23          	sd	a2,-72(s0)
    8000238e:	fad43823          	sd	a3,-80(s0)
  uint64 n, va0, pa0;

  while(len > 0){
    80002392:	a055                	j	80002436 <copyout+0xbc>
    va0 = PGROUNDDOWN(dstva);
    80002394:	fc043703          	ld	a4,-64(s0)
    80002398:	77fd                	lui	a5,0xfffff
    8000239a:	8ff9                	and	a5,a5,a4
    8000239c:	fef43023          	sd	a5,-32(s0)
    pa0 = walkaddr(pagetable, va0);
    800023a0:	fe043583          	ld	a1,-32(s0)
    800023a4:	fc843503          	ld	a0,-56(s0)
    800023a8:	00000097          	auipc	ra,0x0
    800023ac:	872080e7          	jalr	-1934(ra) # 80001c1a <walkaddr>
    800023b0:	fca43c23          	sd	a0,-40(s0)
    if(pa0 == 0)
    800023b4:	fd843783          	ld	a5,-40(s0)
    800023b8:	e399                	bnez	a5,800023be <copyout+0x44>
      return -1;
    800023ba:	57fd                	li	a5,-1
    800023bc:	a049                	j	8000243e <copyout+0xc4>
    n = PGSIZE - (dstva - va0);
    800023be:	fe043703          	ld	a4,-32(s0)
    800023c2:	fc043783          	ld	a5,-64(s0)
    800023c6:	8f1d                	sub	a4,a4,a5
    800023c8:	6785                	lui	a5,0x1
    800023ca:	97ba                	add	a5,a5,a4
    800023cc:	fef43423          	sd	a5,-24(s0)
    if(n > len)
    800023d0:	fe843703          	ld	a4,-24(s0)
    800023d4:	fb043783          	ld	a5,-80(s0)
    800023d8:	00e7f663          	bgeu	a5,a4,800023e4 <copyout+0x6a>
      n = len;
    800023dc:	fb043783          	ld	a5,-80(s0)
    800023e0:	fef43423          	sd	a5,-24(s0)
    memmove((void *)(pa0 + (dstva - va0)), src, n);
    800023e4:	fc043703          	ld	a4,-64(s0)
    800023e8:	fe043783          	ld	a5,-32(s0)
    800023ec:	8f1d                	sub	a4,a4,a5
    800023ee:	fd843783          	ld	a5,-40(s0)
    800023f2:	97ba                	add	a5,a5,a4
    800023f4:	873e                	mv	a4,a5
    800023f6:	fe843783          	ld	a5,-24(s0)
    800023fa:	2781                	sext.w	a5,a5
    800023fc:	863e                	mv	a2,a5
    800023fe:	fb843583          	ld	a1,-72(s0)
    80002402:	853a                	mv	a0,a4
    80002404:	fffff097          	auipc	ra,0xfffff
    80002408:	180080e7          	jalr	384(ra) # 80001584 <memmove>

    len -= n;
    8000240c:	fb043703          	ld	a4,-80(s0)
    80002410:	fe843783          	ld	a5,-24(s0)
    80002414:	40f707b3          	sub	a5,a4,a5
    80002418:	faf43823          	sd	a5,-80(s0)
    src += n;
    8000241c:	fb843703          	ld	a4,-72(s0)
    80002420:	fe843783          	ld	a5,-24(s0)
    80002424:	97ba                	add	a5,a5,a4
    80002426:	faf43c23          	sd	a5,-72(s0)
    dstva = va0 + PGSIZE;
    8000242a:	fe043703          	ld	a4,-32(s0)
    8000242e:	6785                	lui	a5,0x1
    80002430:	97ba                	add	a5,a5,a4
    80002432:	fcf43023          	sd	a5,-64(s0)
  while(len > 0){
    80002436:	fb043783          	ld	a5,-80(s0)
    8000243a:	ffa9                	bnez	a5,80002394 <copyout+0x1a>
  }
  return 0;
    8000243c:	4781                	li	a5,0
}
    8000243e:	853e                	mv	a0,a5
    80002440:	60a6                	ld	ra,72(sp)
    80002442:	6406                	ld	s0,64(sp)
    80002444:	6161                	addi	sp,sp,80
    80002446:	8082                	ret

0000000080002448 <copyin>:
// Copy from user to kernel.
// Copy len bytes to dst from virtual address srcva in a given page table.
// Return 0 on success, -1 on error.
int
copyin(pagetable_t pagetable, char *dst, uint64 srcva, uint64 len)
{
    80002448:	715d                	addi	sp,sp,-80
    8000244a:	e486                	sd	ra,72(sp)
    8000244c:	e0a2                	sd	s0,64(sp)
    8000244e:	0880                	addi	s0,sp,80
    80002450:	fca43423          	sd	a0,-56(s0)
    80002454:	fcb43023          	sd	a1,-64(s0)
    80002458:	fac43c23          	sd	a2,-72(s0)
    8000245c:	fad43823          	sd	a3,-80(s0)
  uint64 n, va0, pa0;

  while(len > 0){
    80002460:	a055                	j	80002504 <copyin+0xbc>
    va0 = PGROUNDDOWN(srcva);
    80002462:	fb843703          	ld	a4,-72(s0)
    80002466:	77fd                	lui	a5,0xfffff
    80002468:	8ff9                	and	a5,a5,a4
    8000246a:	fef43023          	sd	a5,-32(s0)
    pa0 = walkaddr(pagetable, va0);
    8000246e:	fe043583          	ld	a1,-32(s0)
    80002472:	fc843503          	ld	a0,-56(s0)
    80002476:	fffff097          	auipc	ra,0xfffff
    8000247a:	7a4080e7          	jalr	1956(ra) # 80001c1a <walkaddr>
    8000247e:	fca43c23          	sd	a0,-40(s0)
    if(pa0 == 0)
    80002482:	fd843783          	ld	a5,-40(s0)
    80002486:	e399                	bnez	a5,8000248c <copyin+0x44>
      return -1;
    80002488:	57fd                	li	a5,-1
    8000248a:	a049                	j	8000250c <copyin+0xc4>
    n = PGSIZE - (srcva - va0);
    8000248c:	fe043703          	ld	a4,-32(s0)
    80002490:	fb843783          	ld	a5,-72(s0)
    80002494:	8f1d                	sub	a4,a4,a5
    80002496:	6785                	lui	a5,0x1
    80002498:	97ba                	add	a5,a5,a4
    8000249a:	fef43423          	sd	a5,-24(s0)
    if(n > len)
    8000249e:	fe843703          	ld	a4,-24(s0)
    800024a2:	fb043783          	ld	a5,-80(s0)
    800024a6:	00e7f663          	bgeu	a5,a4,800024b2 <copyin+0x6a>
      n = len;
    800024aa:	fb043783          	ld	a5,-80(s0)
    800024ae:	fef43423          	sd	a5,-24(s0)
    memmove(dst, (void *)(pa0 + (srcva - va0)), n);
    800024b2:	fb843703          	ld	a4,-72(s0)
    800024b6:	fe043783          	ld	a5,-32(s0)
    800024ba:	8f1d                	sub	a4,a4,a5
    800024bc:	fd843783          	ld	a5,-40(s0)
    800024c0:	97ba                	add	a5,a5,a4
    800024c2:	873e                	mv	a4,a5
    800024c4:	fe843783          	ld	a5,-24(s0)
    800024c8:	2781                	sext.w	a5,a5
    800024ca:	863e                	mv	a2,a5
    800024cc:	85ba                	mv	a1,a4
    800024ce:	fc043503          	ld	a0,-64(s0)
    800024d2:	fffff097          	auipc	ra,0xfffff
    800024d6:	0b2080e7          	jalr	178(ra) # 80001584 <memmove>

    len -= n;
    800024da:	fb043703          	ld	a4,-80(s0)
    800024de:	fe843783          	ld	a5,-24(s0)
    800024e2:	40f707b3          	sub	a5,a4,a5
    800024e6:	faf43823          	sd	a5,-80(s0)
    dst += n;
    800024ea:	fc043703          	ld	a4,-64(s0)
    800024ee:	fe843783          	ld	a5,-24(s0)
    800024f2:	97ba                	add	a5,a5,a4
    800024f4:	fcf43023          	sd	a5,-64(s0)
    srcva = va0 + PGSIZE;
    800024f8:	fe043703          	ld	a4,-32(s0)
    800024fc:	6785                	lui	a5,0x1
    800024fe:	97ba                	add	a5,a5,a4
    80002500:	faf43c23          	sd	a5,-72(s0)
  while(len > 0){
    80002504:	fb043783          	ld	a5,-80(s0)
    80002508:	ffa9                	bnez	a5,80002462 <copyin+0x1a>
  }
  return 0;
    8000250a:	4781                	li	a5,0
}
    8000250c:	853e                	mv	a0,a5
    8000250e:	60a6                	ld	ra,72(sp)
    80002510:	6406                	ld	s0,64(sp)
    80002512:	6161                	addi	sp,sp,80
    80002514:	8082                	ret

0000000080002516 <copyinstr>:
// Copy bytes to dst from virtual address srcva in a given page table,
// until a '\0', or max.
// Return 0 on success, -1 on error.
int
copyinstr(pagetable_t pagetable, char *dst, uint64 srcva, uint64 max)
{
    80002516:	711d                	addi	sp,sp,-96
    80002518:	ec86                	sd	ra,88(sp)
    8000251a:	e8a2                	sd	s0,80(sp)
    8000251c:	1080                	addi	s0,sp,96
    8000251e:	faa43c23          	sd	a0,-72(s0)
    80002522:	fab43823          	sd	a1,-80(s0)
    80002526:	fac43423          	sd	a2,-88(s0)
    8000252a:	fad43023          	sd	a3,-96(s0)
  uint64 n, va0, pa0;
  int got_null = 0;
    8000252e:	fe042223          	sw	zero,-28(s0)

  while(got_null == 0 && max > 0){
    80002532:	a0f1                	j	800025fe <copyinstr+0xe8>
    va0 = PGROUNDDOWN(srcva);
    80002534:	fa843703          	ld	a4,-88(s0)
    80002538:	77fd                	lui	a5,0xfffff
    8000253a:	8ff9                	and	a5,a5,a4
    8000253c:	fcf43823          	sd	a5,-48(s0)
    pa0 = walkaddr(pagetable, va0);
    80002540:	fd043583          	ld	a1,-48(s0)
    80002544:	fb843503          	ld	a0,-72(s0)
    80002548:	fffff097          	auipc	ra,0xfffff
    8000254c:	6d2080e7          	jalr	1746(ra) # 80001c1a <walkaddr>
    80002550:	fca43423          	sd	a0,-56(s0)
    if(pa0 == 0)
    80002554:	fc843783          	ld	a5,-56(s0)
    80002558:	e399                	bnez	a5,8000255e <copyinstr+0x48>
      return -1;
    8000255a:	57fd                	li	a5,-1
    8000255c:	a87d                	j	8000261a <copyinstr+0x104>
    n = PGSIZE - (srcva - va0);
    8000255e:	fd043703          	ld	a4,-48(s0)
    80002562:	fa843783          	ld	a5,-88(s0)
    80002566:	8f1d                	sub	a4,a4,a5
    80002568:	6785                	lui	a5,0x1
    8000256a:	97ba                	add	a5,a5,a4
    8000256c:	fef43423          	sd	a5,-24(s0)
    if(n > max)
    80002570:	fe843703          	ld	a4,-24(s0)
    80002574:	fa043783          	ld	a5,-96(s0)
    80002578:	00e7f663          	bgeu	a5,a4,80002584 <copyinstr+0x6e>
      n = max;
    8000257c:	fa043783          	ld	a5,-96(s0)
    80002580:	fef43423          	sd	a5,-24(s0)

    char *p = (char *) (pa0 + (srcva - va0));
    80002584:	fa843703          	ld	a4,-88(s0)
    80002588:	fd043783          	ld	a5,-48(s0)
    8000258c:	8f1d                	sub	a4,a4,a5
    8000258e:	fc843783          	ld	a5,-56(s0)
    80002592:	97ba                	add	a5,a5,a4
    80002594:	fcf43c23          	sd	a5,-40(s0)
    while(n > 0){
    80002598:	a891                	j	800025ec <copyinstr+0xd6>
      if(*p == '\0'){
    8000259a:	fd843783          	ld	a5,-40(s0)
    8000259e:	0007c783          	lbu	a5,0(a5) # 1000 <_entry-0x7ffff000>
    800025a2:	eb89                	bnez	a5,800025b4 <copyinstr+0x9e>
        *dst = '\0';
    800025a4:	fb043783          	ld	a5,-80(s0)
    800025a8:	00078023          	sb	zero,0(a5)
        got_null = 1;
    800025ac:	4785                	li	a5,1
    800025ae:	fef42223          	sw	a5,-28(s0)
        break;
    800025b2:	a081                	j	800025f2 <copyinstr+0xdc>
      } else {
        *dst = *p;
    800025b4:	fd843783          	ld	a5,-40(s0)
    800025b8:	0007c703          	lbu	a4,0(a5)
    800025bc:	fb043783          	ld	a5,-80(s0)
    800025c0:	00e78023          	sb	a4,0(a5)
      }
      --n;
    800025c4:	fe843783          	ld	a5,-24(s0)
    800025c8:	17fd                	addi	a5,a5,-1
    800025ca:	fef43423          	sd	a5,-24(s0)
      --max;
    800025ce:	fa043783          	ld	a5,-96(s0)
    800025d2:	17fd                	addi	a5,a5,-1
    800025d4:	faf43023          	sd	a5,-96(s0)
      p++;
    800025d8:	fd843783          	ld	a5,-40(s0)
    800025dc:	0785                	addi	a5,a5,1
    800025de:	fcf43c23          	sd	a5,-40(s0)
      dst++;
    800025e2:	fb043783          	ld	a5,-80(s0)
    800025e6:	0785                	addi	a5,a5,1
    800025e8:	faf43823          	sd	a5,-80(s0)
    while(n > 0){
    800025ec:	fe843783          	ld	a5,-24(s0)
    800025f0:	f7cd                	bnez	a5,8000259a <copyinstr+0x84>
    }

    srcva = va0 + PGSIZE;
    800025f2:	fd043703          	ld	a4,-48(s0)
    800025f6:	6785                	lui	a5,0x1
    800025f8:	97ba                	add	a5,a5,a4
    800025fa:	faf43423          	sd	a5,-88(s0)
  while(got_null == 0 && max > 0){
    800025fe:	fe442783          	lw	a5,-28(s0)
    80002602:	2781                	sext.w	a5,a5
    80002604:	e781                	bnez	a5,8000260c <copyinstr+0xf6>
    80002606:	fa043783          	ld	a5,-96(s0)
    8000260a:	f78d                	bnez	a5,80002534 <copyinstr+0x1e>
  }
  if(got_null){
    8000260c:	fe442783          	lw	a5,-28(s0)
    80002610:	2781                	sext.w	a5,a5
    80002612:	c399                	beqz	a5,80002618 <copyinstr+0x102>
    return 0;
    80002614:	4781                	li	a5,0
    80002616:	a011                	j	8000261a <copyinstr+0x104>
  } else {
    return -1;
    80002618:	57fd                	li	a5,-1
  }
}
    8000261a:	853e                	mv	a0,a5
    8000261c:	60e6                	ld	ra,88(sp)
    8000261e:	6446                	ld	s0,80(sp)
    80002620:	6125                	addi	sp,sp,96
    80002622:	8082                	ret

0000000080002624 <r_sstatus>:
{
    80002624:	1101                	addi	sp,sp,-32
    80002626:	ec06                	sd	ra,24(sp)
    80002628:	e822                	sd	s0,16(sp)
    8000262a:	1000                	addi	s0,sp,32
  asm volatile("csrr %0, sstatus" : "=r" (x) );
    8000262c:	100027f3          	csrr	a5,sstatus
    80002630:	fef43423          	sd	a5,-24(s0)
  return x;
    80002634:	fe843783          	ld	a5,-24(s0)
}
    80002638:	853e                	mv	a0,a5
    8000263a:	60e2                	ld	ra,24(sp)
    8000263c:	6442                	ld	s0,16(sp)
    8000263e:	6105                	addi	sp,sp,32
    80002640:	8082                	ret

0000000080002642 <w_sstatus>:
{
    80002642:	1101                	addi	sp,sp,-32
    80002644:	ec06                	sd	ra,24(sp)
    80002646:	e822                	sd	s0,16(sp)
    80002648:	1000                	addi	s0,sp,32
    8000264a:	fea43423          	sd	a0,-24(s0)
  asm volatile("csrw sstatus, %0" : : "r" (x));
    8000264e:	fe843783          	ld	a5,-24(s0)
    80002652:	10079073          	csrw	sstatus,a5
}
    80002656:	0001                	nop
    80002658:	60e2                	ld	ra,24(sp)
    8000265a:	6442                	ld	s0,16(sp)
    8000265c:	6105                	addi	sp,sp,32
    8000265e:	8082                	ret

0000000080002660 <intr_on>:
{
    80002660:	1141                	addi	sp,sp,-16
    80002662:	e406                	sd	ra,8(sp)
    80002664:	e022                	sd	s0,0(sp)
    80002666:	0800                	addi	s0,sp,16
  w_sstatus(r_sstatus() | SSTATUS_SIE);
    80002668:	00000097          	auipc	ra,0x0
    8000266c:	fbc080e7          	jalr	-68(ra) # 80002624 <r_sstatus>
    80002670:	87aa                	mv	a5,a0
    80002672:	0027e793          	ori	a5,a5,2
    80002676:	853e                	mv	a0,a5
    80002678:	00000097          	auipc	ra,0x0
    8000267c:	fca080e7          	jalr	-54(ra) # 80002642 <w_sstatus>
}
    80002680:	0001                	nop
    80002682:	60a2                	ld	ra,8(sp)
    80002684:	6402                	ld	s0,0(sp)
    80002686:	0141                	addi	sp,sp,16
    80002688:	8082                	ret

000000008000268a <intr_get>:
{
    8000268a:	1101                	addi	sp,sp,-32
    8000268c:	ec06                	sd	ra,24(sp)
    8000268e:	e822                	sd	s0,16(sp)
    80002690:	1000                	addi	s0,sp,32
  uint64 x = r_sstatus();
    80002692:	00000097          	auipc	ra,0x0
    80002696:	f92080e7          	jalr	-110(ra) # 80002624 <r_sstatus>
    8000269a:	fea43423          	sd	a0,-24(s0)
  return (x & SSTATUS_SIE) != 0;
    8000269e:	fe843783          	ld	a5,-24(s0)
    800026a2:	8b89                	andi	a5,a5,2
    800026a4:	00f037b3          	snez	a5,a5
    800026a8:	0ff7f793          	zext.b	a5,a5
    800026ac:	2781                	sext.w	a5,a5
}
    800026ae:	853e                	mv	a0,a5
    800026b0:	60e2                	ld	ra,24(sp)
    800026b2:	6442                	ld	s0,16(sp)
    800026b4:	6105                	addi	sp,sp,32
    800026b6:	8082                	ret

00000000800026b8 <r_tp>:
{
    800026b8:	1101                	addi	sp,sp,-32
    800026ba:	ec06                	sd	ra,24(sp)
    800026bc:	e822                	sd	s0,16(sp)
    800026be:	1000                	addi	s0,sp,32
  asm volatile("mv %0, tp" : "=r" (x) );
    800026c0:	8792                	mv	a5,tp
    800026c2:	fef43423          	sd	a5,-24(s0)
  return x;
    800026c6:	fe843783          	ld	a5,-24(s0)
}
    800026ca:	853e                	mv	a0,a5
    800026cc:	60e2                	ld	ra,24(sp)
    800026ce:	6442                	ld	s0,16(sp)
    800026d0:	6105                	addi	sp,sp,32
    800026d2:	8082                	ret

00000000800026d4 <proc_mapstacks>:
// Allocate a page for each process's kernel stack.
// Map it high in memory, followed by an invalid
// guard page.
void
proc_mapstacks(pagetable_t kpgtbl)
{
    800026d4:	7139                	addi	sp,sp,-64
    800026d6:	fc06                	sd	ra,56(sp)
    800026d8:	f822                	sd	s0,48(sp)
    800026da:	0080                	addi	s0,sp,64
    800026dc:	fca43423          	sd	a0,-56(s0)
  struct proc *p;
  
  for(p = proc; p < &proc[NPROC]; p++) {
    800026e0:	00012797          	auipc	a5,0x12
    800026e4:	85878793          	addi	a5,a5,-1960 # 80013f38 <proc>
    800026e8:	fef43423          	sd	a5,-24(s0)
    800026ec:	a061                	j	80002774 <proc_mapstacks+0xa0>
    char *pa = kalloc();
    800026ee:	fffff097          	auipc	ra,0xfffff
    800026f2:	a76080e7          	jalr	-1418(ra) # 80001164 <kalloc>
    800026f6:	fea43023          	sd	a0,-32(s0)
    if(pa == 0)
    800026fa:	fe043783          	ld	a5,-32(s0)
    800026fe:	eb89                	bnez	a5,80002710 <proc_mapstacks+0x3c>
      panic("kalloc");
    80002700:	00009517          	auipc	a0,0x9
    80002704:	ac050513          	addi	a0,a0,-1344 # 8000b1c0 <etext+0x1c0>
    80002708:	ffffe097          	auipc	ra,0xffffe
    8000270c:	5b8080e7          	jalr	1464(ra) # 80000cc0 <panic>
    uint64 va = KSTACK((int) (p - proc));
    80002710:	fe843703          	ld	a4,-24(s0)
    80002714:	00012797          	auipc	a5,0x12
    80002718:	82478793          	addi	a5,a5,-2012 # 80013f38 <proc>
    8000271c:	40f707b3          	sub	a5,a4,a5
    80002720:	4037d713          	srai	a4,a5,0x3
    80002724:	00009797          	auipc	a5,0x9
    80002728:	b9478793          	addi	a5,a5,-1132 # 8000b2b8 <etext+0x2b8>
    8000272c:	639c                	ld	a5,0(a5)
    8000272e:	02f707b3          	mul	a5,a4,a5
    80002732:	2781                	sext.w	a5,a5
    80002734:	2785                	addiw	a5,a5,1
    80002736:	2781                	sext.w	a5,a5
    80002738:	00d7979b          	slliw	a5,a5,0xd
    8000273c:	2781                	sext.w	a5,a5
    8000273e:	873e                	mv	a4,a5
    80002740:	040007b7          	lui	a5,0x4000
    80002744:	17fd                	addi	a5,a5,-1 # 3ffffff <_entry-0x7c000001>
    80002746:	07b2                	slli	a5,a5,0xc
    80002748:	8f99                	sub	a5,a5,a4
    8000274a:	fcf43c23          	sd	a5,-40(s0)
    kvmmap(kpgtbl, va, (uint64)pa, PGSIZE, PTE_R | PTE_W);
    8000274e:	fe043783          	ld	a5,-32(s0)
    80002752:	4719                	li	a4,6
    80002754:	6685                	lui	a3,0x1
    80002756:	863e                	mv	a2,a5
    80002758:	fd843583          	ld	a1,-40(s0)
    8000275c:	fc843503          	ld	a0,-56(s0)
    80002760:	fffff097          	auipc	ra,0xfffff
    80002764:	532080e7          	jalr	1330(ra) # 80001c92 <kvmmap>
  for(p = proc; p < &proc[NPROC]; p++) {
    80002768:	fe843783          	ld	a5,-24(s0)
    8000276c:	16878793          	addi	a5,a5,360
    80002770:	fef43423          	sd	a5,-24(s0)
    80002774:	fe843703          	ld	a4,-24(s0)
    80002778:	00017797          	auipc	a5,0x17
    8000277c:	1c078793          	addi	a5,a5,448 # 80019938 <pid_lock>
    80002780:	f6f767e3          	bltu	a4,a5,800026ee <proc_mapstacks+0x1a>
  }
}
    80002784:	0001                	nop
    80002786:	0001                	nop
    80002788:	70e2                	ld	ra,56(sp)
    8000278a:	7442                	ld	s0,48(sp)
    8000278c:	6121                	addi	sp,sp,64
    8000278e:	8082                	ret

0000000080002790 <procinit>:

// initialize the proc table.
void
procinit(void)
{
    80002790:	1101                	addi	sp,sp,-32
    80002792:	ec06                	sd	ra,24(sp)
    80002794:	e822                	sd	s0,16(sp)
    80002796:	1000                	addi	s0,sp,32
  struct proc *p;
  
  initlock(&pid_lock, "nextpid");
    80002798:	00009597          	auipc	a1,0x9
    8000279c:	a3058593          	addi	a1,a1,-1488 # 8000b1c8 <etext+0x1c8>
    800027a0:	00017517          	auipc	a0,0x17
    800027a4:	19850513          	addi	a0,a0,408 # 80019938 <pid_lock>
    800027a8:	fffff097          	auipc	ra,0xfffff
    800027ac:	ae8080e7          	jalr	-1304(ra) # 80001290 <initlock>
  initlock(&wait_lock, "wait_lock");
    800027b0:	00009597          	auipc	a1,0x9
    800027b4:	a2058593          	addi	a1,a1,-1504 # 8000b1d0 <etext+0x1d0>
    800027b8:	00017517          	auipc	a0,0x17
    800027bc:	19850513          	addi	a0,a0,408 # 80019950 <wait_lock>
    800027c0:	fffff097          	auipc	ra,0xfffff
    800027c4:	ad0080e7          	jalr	-1328(ra) # 80001290 <initlock>
  for(p = proc; p < &proc[NPROC]; p++) {
    800027c8:	00011797          	auipc	a5,0x11
    800027cc:	77078793          	addi	a5,a5,1904 # 80013f38 <proc>
    800027d0:	fef43423          	sd	a5,-24(s0)
    800027d4:	a0bd                	j	80002842 <procinit+0xb2>
      initlock(&p->lock, "proc");
    800027d6:	fe843783          	ld	a5,-24(s0)
    800027da:	00009597          	auipc	a1,0x9
    800027de:	a0658593          	addi	a1,a1,-1530 # 8000b1e0 <etext+0x1e0>
    800027e2:	853e                	mv	a0,a5
    800027e4:	fffff097          	auipc	ra,0xfffff
    800027e8:	aac080e7          	jalr	-1364(ra) # 80001290 <initlock>
      p->state = UNUSED;
    800027ec:	fe843783          	ld	a5,-24(s0)
    800027f0:	0007ac23          	sw	zero,24(a5)
      p->kstack = KSTACK((int) (p - proc));
    800027f4:	fe843703          	ld	a4,-24(s0)
    800027f8:	00011797          	auipc	a5,0x11
    800027fc:	74078793          	addi	a5,a5,1856 # 80013f38 <proc>
    80002800:	40f707b3          	sub	a5,a4,a5
    80002804:	4037d713          	srai	a4,a5,0x3
    80002808:	00009797          	auipc	a5,0x9
    8000280c:	ab078793          	addi	a5,a5,-1360 # 8000b2b8 <etext+0x2b8>
    80002810:	639c                	ld	a5,0(a5)
    80002812:	02f707b3          	mul	a5,a4,a5
    80002816:	2781                	sext.w	a5,a5
    80002818:	2785                	addiw	a5,a5,1
    8000281a:	2781                	sext.w	a5,a5
    8000281c:	00d7979b          	slliw	a5,a5,0xd
    80002820:	2781                	sext.w	a5,a5
    80002822:	873e                	mv	a4,a5
    80002824:	040007b7          	lui	a5,0x4000
    80002828:	17fd                	addi	a5,a5,-1 # 3ffffff <_entry-0x7c000001>
    8000282a:	07b2                	slli	a5,a5,0xc
    8000282c:	8f99                	sub	a5,a5,a4
    8000282e:	873e                	mv	a4,a5
    80002830:	fe843783          	ld	a5,-24(s0)
    80002834:	e3b8                	sd	a4,64(a5)
  for(p = proc; p < &proc[NPROC]; p++) {
    80002836:	fe843783          	ld	a5,-24(s0)
    8000283a:	16878793          	addi	a5,a5,360
    8000283e:	fef43423          	sd	a5,-24(s0)
    80002842:	fe843703          	ld	a4,-24(s0)
    80002846:	00017797          	auipc	a5,0x17
    8000284a:	0f278793          	addi	a5,a5,242 # 80019938 <pid_lock>
    8000284e:	f8f764e3          	bltu	a4,a5,800027d6 <procinit+0x46>
  }
}
    80002852:	0001                	nop
    80002854:	0001                	nop
    80002856:	60e2                	ld	ra,24(sp)
    80002858:	6442                	ld	s0,16(sp)
    8000285a:	6105                	addi	sp,sp,32
    8000285c:	8082                	ret

000000008000285e <cpuid>:
// Must be called with interrupts disabled,
// to prevent race with process being moved
// to a different CPU.
int
cpuid()
{
    8000285e:	1101                	addi	sp,sp,-32
    80002860:	ec06                	sd	ra,24(sp)
    80002862:	e822                	sd	s0,16(sp)
    80002864:	1000                	addi	s0,sp,32
  int id = r_tp();
    80002866:	00000097          	auipc	ra,0x0
    8000286a:	e52080e7          	jalr	-430(ra) # 800026b8 <r_tp>
    8000286e:	87aa                	mv	a5,a0
    80002870:	fef42623          	sw	a5,-20(s0)
  return id;
    80002874:	fec42783          	lw	a5,-20(s0)
}
    80002878:	853e                	mv	a0,a5
    8000287a:	60e2                	ld	ra,24(sp)
    8000287c:	6442                	ld	s0,16(sp)
    8000287e:	6105                	addi	sp,sp,32
    80002880:	8082                	ret

0000000080002882 <mycpu>:

// Return this CPU's cpu struct.
// Interrupts must be disabled.
struct cpu*
mycpu(void)
{
    80002882:	1101                	addi	sp,sp,-32
    80002884:	ec06                	sd	ra,24(sp)
    80002886:	e822                	sd	s0,16(sp)
    80002888:	1000                	addi	s0,sp,32
  int id = cpuid();
    8000288a:	00000097          	auipc	ra,0x0
    8000288e:	fd4080e7          	jalr	-44(ra) # 8000285e <cpuid>
    80002892:	87aa                	mv	a5,a0
    80002894:	fef42623          	sw	a5,-20(s0)
  struct cpu *c = &cpus[id];
    80002898:	fec42783          	lw	a5,-20(s0)
    8000289c:	00779713          	slli	a4,a5,0x7
    800028a0:	00011797          	auipc	a5,0x11
    800028a4:	29878793          	addi	a5,a5,664 # 80013b38 <cpus>
    800028a8:	97ba                	add	a5,a5,a4
    800028aa:	fef43023          	sd	a5,-32(s0)
  return c;
    800028ae:	fe043783          	ld	a5,-32(s0)
}
    800028b2:	853e                	mv	a0,a5
    800028b4:	60e2                	ld	ra,24(sp)
    800028b6:	6442                	ld	s0,16(sp)
    800028b8:	6105                	addi	sp,sp,32
    800028ba:	8082                	ret

00000000800028bc <myproc>:

// Return the current struct proc *, or zero if none.
struct proc*
myproc(void)
{
    800028bc:	1101                	addi	sp,sp,-32
    800028be:	ec06                	sd	ra,24(sp)
    800028c0:	e822                	sd	s0,16(sp)
    800028c2:	1000                	addi	s0,sp,32
  push_off();
    800028c4:	fffff097          	auipc	ra,0xfffff
    800028c8:	afe080e7          	jalr	-1282(ra) # 800013c2 <push_off>
  struct cpu *c = mycpu();
    800028cc:	00000097          	auipc	ra,0x0
    800028d0:	fb6080e7          	jalr	-74(ra) # 80002882 <mycpu>
    800028d4:	fea43423          	sd	a0,-24(s0)
  struct proc *p = c->proc;
    800028d8:	fe843783          	ld	a5,-24(s0)
    800028dc:	639c                	ld	a5,0(a5)
    800028de:	fef43023          	sd	a5,-32(s0)
  pop_off();
    800028e2:	fffff097          	auipc	ra,0xfffff
    800028e6:	b38080e7          	jalr	-1224(ra) # 8000141a <pop_off>
  return p;
    800028ea:	fe043783          	ld	a5,-32(s0)
}
    800028ee:	853e                	mv	a0,a5
    800028f0:	60e2                	ld	ra,24(sp)
    800028f2:	6442                	ld	s0,16(sp)
    800028f4:	6105                	addi	sp,sp,32
    800028f6:	8082                	ret

00000000800028f8 <allocpid>:

int
allocpid()
{
    800028f8:	1101                	addi	sp,sp,-32
    800028fa:	ec06                	sd	ra,24(sp)
    800028fc:	e822                	sd	s0,16(sp)
    800028fe:	1000                	addi	s0,sp,32
  int pid;
  
  acquire(&pid_lock);
    80002900:	00017517          	auipc	a0,0x17
    80002904:	03850513          	addi	a0,a0,56 # 80019938 <pid_lock>
    80002908:	fffff097          	auipc	ra,0xfffff
    8000290c:	9bc080e7          	jalr	-1604(ra) # 800012c4 <acquire>
  pid = nextpid;
    80002910:	00009797          	auipc	a5,0x9
    80002914:	e5078793          	addi	a5,a5,-432 # 8000b760 <nextpid>
    80002918:	439c                	lw	a5,0(a5)
    8000291a:	fef42623          	sw	a5,-20(s0)
  nextpid = nextpid + 1;
    8000291e:	00009797          	auipc	a5,0x9
    80002922:	e4278793          	addi	a5,a5,-446 # 8000b760 <nextpid>
    80002926:	439c                	lw	a5,0(a5)
    80002928:	2785                	addiw	a5,a5,1
    8000292a:	0007871b          	sext.w	a4,a5
    8000292e:	00009797          	auipc	a5,0x9
    80002932:	e3278793          	addi	a5,a5,-462 # 8000b760 <nextpid>
    80002936:	c398                	sw	a4,0(a5)
  release(&pid_lock);
    80002938:	00017517          	auipc	a0,0x17
    8000293c:	00050513          	mv	a0,a0
    80002940:	fffff097          	auipc	ra,0xfffff
    80002944:	9e8080e7          	jalr	-1560(ra) # 80001328 <release>

  return pid;
    80002948:	fec42783          	lw	a5,-20(s0)
}
    8000294c:	853e                	mv	a0,a5
    8000294e:	60e2                	ld	ra,24(sp)
    80002950:	6442                	ld	s0,16(sp)
    80002952:	6105                	addi	sp,sp,32
    80002954:	8082                	ret

0000000080002956 <allocproc>:
// If found, initialize state required to run in the kernel,
// and return with p->lock held.
// If there are no free procs, or a memory allocation fails, return 0.
static struct proc*
allocproc(void)
{
    80002956:	1101                	addi	sp,sp,-32
    80002958:	ec06                	sd	ra,24(sp)
    8000295a:	e822                	sd	s0,16(sp)
    8000295c:	1000                	addi	s0,sp,32
  struct proc *p;

  for(p = proc; p < &proc[NPROC]; p++) {
    8000295e:	00011797          	auipc	a5,0x11
    80002962:	5da78793          	addi	a5,a5,1498 # 80013f38 <proc>
    80002966:	fef43423          	sd	a5,-24(s0)
    8000296a:	a80d                	j	8000299c <allocproc+0x46>
    acquire(&p->lock);
    8000296c:	fe843783          	ld	a5,-24(s0)
    80002970:	853e                	mv	a0,a5
    80002972:	fffff097          	auipc	ra,0xfffff
    80002976:	952080e7          	jalr	-1710(ra) # 800012c4 <acquire>
    if(p->state == UNUSED) {
    8000297a:	fe843783          	ld	a5,-24(s0)
    8000297e:	4f9c                	lw	a5,24(a5)
    80002980:	cb85                	beqz	a5,800029b0 <allocproc+0x5a>
      goto found;
    } else {
      release(&p->lock);
    80002982:	fe843783          	ld	a5,-24(s0)
    80002986:	853e                	mv	a0,a5
    80002988:	fffff097          	auipc	ra,0xfffff
    8000298c:	9a0080e7          	jalr	-1632(ra) # 80001328 <release>
  for(p = proc; p < &proc[NPROC]; p++) {
    80002990:	fe843783          	ld	a5,-24(s0)
    80002994:	16878793          	addi	a5,a5,360
    80002998:	fef43423          	sd	a5,-24(s0)
    8000299c:	fe843703          	ld	a4,-24(s0)
    800029a0:	00017797          	auipc	a5,0x17
    800029a4:	f9878793          	addi	a5,a5,-104 # 80019938 <pid_lock>
    800029a8:	fcf762e3          	bltu	a4,a5,8000296c <allocproc+0x16>
    }
  }
  return 0;
    800029ac:	4781                	li	a5,0
    800029ae:	a0e1                	j	80002a76 <allocproc+0x120>
      goto found;
    800029b0:	0001                	nop

found:
  p->pid = allocpid();
    800029b2:	00000097          	auipc	ra,0x0
    800029b6:	f46080e7          	jalr	-186(ra) # 800028f8 <allocpid>
    800029ba:	87aa                	mv	a5,a0
    800029bc:	873e                	mv	a4,a5
    800029be:	fe843783          	ld	a5,-24(s0)
    800029c2:	db98                	sw	a4,48(a5)
  p->state = USED;
    800029c4:	fe843783          	ld	a5,-24(s0)
    800029c8:	4705                	li	a4,1
    800029ca:	cf98                	sw	a4,24(a5)

  // Allocate a trapframe page.
  if((p->trapframe = (struct trapframe *)kalloc()) == 0){
    800029cc:	ffffe097          	auipc	ra,0xffffe
    800029d0:	798080e7          	jalr	1944(ra) # 80001164 <kalloc>
    800029d4:	872a                	mv	a4,a0
    800029d6:	fe843783          	ld	a5,-24(s0)
    800029da:	efb8                	sd	a4,88(a5)
    800029dc:	fe843783          	ld	a5,-24(s0)
    800029e0:	6fbc                	ld	a5,88(a5)
    800029e2:	e385                	bnez	a5,80002a02 <allocproc+0xac>
    freeproc(p);
    800029e4:	fe843503          	ld	a0,-24(s0)
    800029e8:	00000097          	auipc	ra,0x0
    800029ec:	098080e7          	jalr	152(ra) # 80002a80 <freeproc>
    release(&p->lock);
    800029f0:	fe843783          	ld	a5,-24(s0)
    800029f4:	853e                	mv	a0,a5
    800029f6:	fffff097          	auipc	ra,0xfffff
    800029fa:	932080e7          	jalr	-1742(ra) # 80001328 <release>
    return 0;
    800029fe:	4781                	li	a5,0
    80002a00:	a89d                	j	80002a76 <allocproc+0x120>
  }

  // An empty user page table.
  p->pagetable = proc_pagetable(p);
    80002a02:	fe843503          	ld	a0,-24(s0)
    80002a06:	00000097          	auipc	ra,0x0
    80002a0a:	118080e7          	jalr	280(ra) # 80002b1e <proc_pagetable>
    80002a0e:	872a                	mv	a4,a0
    80002a10:	fe843783          	ld	a5,-24(s0)
    80002a14:	ebb8                	sd	a4,80(a5)
  if(p->pagetable == 0){
    80002a16:	fe843783          	ld	a5,-24(s0)
    80002a1a:	6bbc                	ld	a5,80(a5)
    80002a1c:	e385                	bnez	a5,80002a3c <allocproc+0xe6>
    freeproc(p);
    80002a1e:	fe843503          	ld	a0,-24(s0)
    80002a22:	00000097          	auipc	ra,0x0
    80002a26:	05e080e7          	jalr	94(ra) # 80002a80 <freeproc>
    release(&p->lock);
    80002a2a:	fe843783          	ld	a5,-24(s0)
    80002a2e:	853e                	mv	a0,a5
    80002a30:	fffff097          	auipc	ra,0xfffff
    80002a34:	8f8080e7          	jalr	-1800(ra) # 80001328 <release>
    return 0;
    80002a38:	4781                	li	a5,0
    80002a3a:	a835                	j	80002a76 <allocproc+0x120>
  }

  // Set up new context to start executing at forkret,
  // which returns to user space.
  memset(&p->context, 0, sizeof(p->context));
    80002a3c:	fe843783          	ld	a5,-24(s0)
    80002a40:	06078793          	addi	a5,a5,96
    80002a44:	07000613          	li	a2,112
    80002a48:	4581                	li	a1,0
    80002a4a:	853e                	mv	a0,a5
    80002a4c:	fffff097          	auipc	ra,0xfffff
    80002a50:	a4c080e7          	jalr	-1460(ra) # 80001498 <memset>
  p->context.ra = (uint64)forkret;
    80002a54:	00001717          	auipc	a4,0x1
    80002a58:	9d270713          	addi	a4,a4,-1582 # 80003426 <forkret>
    80002a5c:	fe843783          	ld	a5,-24(s0)
    80002a60:	f3b8                	sd	a4,96(a5)
  p->context.sp = p->kstack + PGSIZE;
    80002a62:	fe843783          	ld	a5,-24(s0)
    80002a66:	63b8                	ld	a4,64(a5)
    80002a68:	6785                	lui	a5,0x1
    80002a6a:	973e                	add	a4,a4,a5
    80002a6c:	fe843783          	ld	a5,-24(s0)
    80002a70:	f7b8                	sd	a4,104(a5)

  return p;
    80002a72:	fe843783          	ld	a5,-24(s0)
}
    80002a76:	853e                	mv	a0,a5
    80002a78:	60e2                	ld	ra,24(sp)
    80002a7a:	6442                	ld	s0,16(sp)
    80002a7c:	6105                	addi	sp,sp,32
    80002a7e:	8082                	ret

0000000080002a80 <freeproc>:
// free a proc structure and the data hanging from it,
// including user pages.
// p->lock must be held.
static void
freeproc(struct proc *p)
{
    80002a80:	1101                	addi	sp,sp,-32
    80002a82:	ec06                	sd	ra,24(sp)
    80002a84:	e822                	sd	s0,16(sp)
    80002a86:	1000                	addi	s0,sp,32
    80002a88:	fea43423          	sd	a0,-24(s0)
  if(p->trapframe)
    80002a8c:	fe843783          	ld	a5,-24(s0)
    80002a90:	6fbc                	ld	a5,88(a5)
    80002a92:	cb89                	beqz	a5,80002aa4 <freeproc+0x24>
    kfree((void*)p->trapframe);
    80002a94:	fe843783          	ld	a5,-24(s0)
    80002a98:	6fbc                	ld	a5,88(a5)
    80002a9a:	853e                	mv	a0,a5
    80002a9c:	ffffe097          	auipc	ra,0xffffe
    80002aa0:	624080e7          	jalr	1572(ra) # 800010c0 <kfree>
  p->trapframe = 0;
    80002aa4:	fe843783          	ld	a5,-24(s0)
    80002aa8:	0407bc23          	sd	zero,88(a5) # 1058 <_entry-0x7fffefa8>
  if(p->pagetable)
    80002aac:	fe843783          	ld	a5,-24(s0)
    80002ab0:	6bbc                	ld	a5,80(a5)
    80002ab2:	cf89                	beqz	a5,80002acc <freeproc+0x4c>
    proc_freepagetable(p->pagetable, p->sz);
    80002ab4:	fe843783          	ld	a5,-24(s0)
    80002ab8:	6bb8                	ld	a4,80(a5)
    80002aba:	fe843783          	ld	a5,-24(s0)
    80002abe:	67bc                	ld	a5,72(a5)
    80002ac0:	85be                	mv	a1,a5
    80002ac2:	853a                	mv	a0,a4
    80002ac4:	00000097          	auipc	ra,0x0
    80002ac8:	11a080e7          	jalr	282(ra) # 80002bde <proc_freepagetable>
  p->pagetable = 0;
    80002acc:	fe843783          	ld	a5,-24(s0)
    80002ad0:	0407b823          	sd	zero,80(a5)
  p->sz = 0;
    80002ad4:	fe843783          	ld	a5,-24(s0)
    80002ad8:	0407b423          	sd	zero,72(a5)
  p->pid = 0;
    80002adc:	fe843783          	ld	a5,-24(s0)
    80002ae0:	0207a823          	sw	zero,48(a5)
  p->parent = 0;
    80002ae4:	fe843783          	ld	a5,-24(s0)
    80002ae8:	0207bc23          	sd	zero,56(a5)
  p->name[0] = 0;
    80002aec:	fe843783          	ld	a5,-24(s0)
    80002af0:	14078c23          	sb	zero,344(a5)
  p->chan = 0;
    80002af4:	fe843783          	ld	a5,-24(s0)
    80002af8:	0207b023          	sd	zero,32(a5)
  p->killed = 0;
    80002afc:	fe843783          	ld	a5,-24(s0)
    80002b00:	0207a423          	sw	zero,40(a5)
  p->xstate = 0;
    80002b04:	fe843783          	ld	a5,-24(s0)
    80002b08:	0207a623          	sw	zero,44(a5)
  p->state = UNUSED;
    80002b0c:	fe843783          	ld	a5,-24(s0)
    80002b10:	0007ac23          	sw	zero,24(a5)
}
    80002b14:	0001                	nop
    80002b16:	60e2                	ld	ra,24(sp)
    80002b18:	6442                	ld	s0,16(sp)
    80002b1a:	6105                	addi	sp,sp,32
    80002b1c:	8082                	ret

0000000080002b1e <proc_pagetable>:

// Create a user page table for a given process, with no user memory,
// but with trampoline and trapframe pages.
pagetable_t
proc_pagetable(struct proc *p)
{
    80002b1e:	7179                	addi	sp,sp,-48
    80002b20:	f406                	sd	ra,40(sp)
    80002b22:	f022                	sd	s0,32(sp)
    80002b24:	1800                	addi	s0,sp,48
    80002b26:	fca43c23          	sd	a0,-40(s0)
  pagetable_t pagetable;

  // An empty page table.
  pagetable = uvmcreate();
    80002b2a:	fffff097          	auipc	ra,0xfffff
    80002b2e:	3a0080e7          	jalr	928(ra) # 80001eca <uvmcreate>
    80002b32:	fea43423          	sd	a0,-24(s0)
  if(pagetable == 0)
    80002b36:	fe843783          	ld	a5,-24(s0)
    80002b3a:	e399                	bnez	a5,80002b40 <proc_pagetable+0x22>
    return 0;
    80002b3c:	4781                	li	a5,0
    80002b3e:	a859                	j	80002bd4 <proc_pagetable+0xb6>

  // map the trampoline code (for system call return)
  // at the highest user virtual address.
  // only the supervisor uses it, on the way
  // to/from user space, so not PTE_U.
  if(mappages(pagetable, TRAMPOLINE, PGSIZE,
    80002b40:	00007797          	auipc	a5,0x7
    80002b44:	4c078793          	addi	a5,a5,1216 # 8000a000 <_trampoline>
    80002b48:	4729                	li	a4,10
    80002b4a:	86be                	mv	a3,a5
    80002b4c:	6605                	lui	a2,0x1
    80002b4e:	040007b7          	lui	a5,0x4000
    80002b52:	17fd                	addi	a5,a5,-1 # 3ffffff <_entry-0x7c000001>
    80002b54:	00c79593          	slli	a1,a5,0xc
    80002b58:	fe843503          	ld	a0,-24(s0)
    80002b5c:	fffff097          	auipc	ra,0xfffff
    80002b60:	190080e7          	jalr	400(ra) # 80001cec <mappages>
    80002b64:	87aa                	mv	a5,a0
    80002b66:	0007db63          	bgez	a5,80002b7c <proc_pagetable+0x5e>
              (uint64)trampoline, PTE_R | PTE_X) < 0){
    uvmfree(pagetable, 0);
    80002b6a:	4581                	li	a1,0
    80002b6c:	fe843503          	ld	a0,-24(s0)
    80002b70:	fffff097          	auipc	ra,0xfffff
    80002b74:	656080e7          	jalr	1622(ra) # 800021c6 <uvmfree>
    return 0;
    80002b78:	4781                	li	a5,0
    80002b7a:	a8a9                	j	80002bd4 <proc_pagetable+0xb6>
  }

  // map the trapframe page just below the trampoline page, for
  // trampoline.S.
  if(mappages(pagetable, TRAPFRAME, PGSIZE,
              (uint64)(p->trapframe), PTE_R | PTE_W) < 0){
    80002b7c:	fd843783          	ld	a5,-40(s0)
    80002b80:	6fbc                	ld	a5,88(a5)
  if(mappages(pagetable, TRAPFRAME, PGSIZE,
    80002b82:	4719                	li	a4,6
    80002b84:	86be                	mv	a3,a5
    80002b86:	6605                	lui	a2,0x1
    80002b88:	020007b7          	lui	a5,0x2000
    80002b8c:	17fd                	addi	a5,a5,-1 # 1ffffff <_entry-0x7e000001>
    80002b8e:	00d79593          	slli	a1,a5,0xd
    80002b92:	fe843503          	ld	a0,-24(s0)
    80002b96:	fffff097          	auipc	ra,0xfffff
    80002b9a:	156080e7          	jalr	342(ra) # 80001cec <mappages>
    80002b9e:	87aa                	mv	a5,a0
    80002ba0:	0207d863          	bgez	a5,80002bd0 <proc_pagetable+0xb2>
    uvmunmap(pagetable, TRAMPOLINE, 1, 0);
    80002ba4:	4681                	li	a3,0
    80002ba6:	4605                	li	a2,1
    80002ba8:	040007b7          	lui	a5,0x4000
    80002bac:	17fd                	addi	a5,a5,-1 # 3ffffff <_entry-0x7c000001>
    80002bae:	00c79593          	slli	a1,a5,0xc
    80002bb2:	fe843503          	ld	a0,-24(s0)
    80002bb6:	fffff097          	auipc	ra,0xfffff
    80002bba:	214080e7          	jalr	532(ra) # 80001dca <uvmunmap>
    uvmfree(pagetable, 0);
    80002bbe:	4581                	li	a1,0
    80002bc0:	fe843503          	ld	a0,-24(s0)
    80002bc4:	fffff097          	auipc	ra,0xfffff
    80002bc8:	602080e7          	jalr	1538(ra) # 800021c6 <uvmfree>
    return 0;
    80002bcc:	4781                	li	a5,0
    80002bce:	a019                	j	80002bd4 <proc_pagetable+0xb6>
  }

  return pagetable;
    80002bd0:	fe843783          	ld	a5,-24(s0)
}
    80002bd4:	853e                	mv	a0,a5
    80002bd6:	70a2                	ld	ra,40(sp)
    80002bd8:	7402                	ld	s0,32(sp)
    80002bda:	6145                	addi	sp,sp,48
    80002bdc:	8082                	ret

0000000080002bde <proc_freepagetable>:

// Free a process's page table, and free the
// physical memory it refers to.
void
proc_freepagetable(pagetable_t pagetable, uint64 sz)
{
    80002bde:	1101                	addi	sp,sp,-32
    80002be0:	ec06                	sd	ra,24(sp)
    80002be2:	e822                	sd	s0,16(sp)
    80002be4:	1000                	addi	s0,sp,32
    80002be6:	fea43423          	sd	a0,-24(s0)
    80002bea:	feb43023          	sd	a1,-32(s0)
  uvmunmap(pagetable, TRAMPOLINE, 1, 0);
    80002bee:	4681                	li	a3,0
    80002bf0:	4605                	li	a2,1
    80002bf2:	040007b7          	lui	a5,0x4000
    80002bf6:	17fd                	addi	a5,a5,-1 # 3ffffff <_entry-0x7c000001>
    80002bf8:	00c79593          	slli	a1,a5,0xc
    80002bfc:	fe843503          	ld	a0,-24(s0)
    80002c00:	fffff097          	auipc	ra,0xfffff
    80002c04:	1ca080e7          	jalr	458(ra) # 80001dca <uvmunmap>
  uvmunmap(pagetable, TRAPFRAME, 1, 0);
    80002c08:	4681                	li	a3,0
    80002c0a:	4605                	li	a2,1
    80002c0c:	020007b7          	lui	a5,0x2000
    80002c10:	17fd                	addi	a5,a5,-1 # 1ffffff <_entry-0x7e000001>
    80002c12:	00d79593          	slli	a1,a5,0xd
    80002c16:	fe843503          	ld	a0,-24(s0)
    80002c1a:	fffff097          	auipc	ra,0xfffff
    80002c1e:	1b0080e7          	jalr	432(ra) # 80001dca <uvmunmap>
  uvmfree(pagetable, sz);
    80002c22:	fe043583          	ld	a1,-32(s0)
    80002c26:	fe843503          	ld	a0,-24(s0)
    80002c2a:	fffff097          	auipc	ra,0xfffff
    80002c2e:	59c080e7          	jalr	1436(ra) # 800021c6 <uvmfree>
}
    80002c32:	0001                	nop
    80002c34:	60e2                	ld	ra,24(sp)
    80002c36:	6442                	ld	s0,16(sp)
    80002c38:	6105                	addi	sp,sp,32
    80002c3a:	8082                	ret

0000000080002c3c <userinit>:
};

// Set up first user process.
void
userinit(void)
{
    80002c3c:	1101                	addi	sp,sp,-32
    80002c3e:	ec06                	sd	ra,24(sp)
    80002c40:	e822                	sd	s0,16(sp)
    80002c42:	1000                	addi	s0,sp,32
  struct proc *p;

  p = allocproc();
    80002c44:	00000097          	auipc	ra,0x0
    80002c48:	d12080e7          	jalr	-750(ra) # 80002956 <allocproc>
    80002c4c:	fea43423          	sd	a0,-24(s0)
  initproc = p;
    80002c50:	00009797          	auipc	a5,0x9
    80002c54:	c7078793          	addi	a5,a5,-912 # 8000b8c0 <initproc>
    80002c58:	fe843703          	ld	a4,-24(s0)
    80002c5c:	e398                	sd	a4,0(a5)
  
  // allocate one user page and copy initcode's instructions
  // and data into it.
  uvmfirst(p->pagetable, initcode, sizeof(initcode));
    80002c5e:	fe843783          	ld	a5,-24(s0)
    80002c62:	6bbc                	ld	a5,80(a5)
    80002c64:	03400613          	li	a2,52
    80002c68:	00009597          	auipc	a1,0x9
    80002c6c:	b2058593          	addi	a1,a1,-1248 # 8000b788 <initcode>
    80002c70:	853e                	mv	a0,a5
    80002c72:	fffff097          	auipc	ra,0xfffff
    80002c76:	294080e7          	jalr	660(ra) # 80001f06 <uvmfirst>
  p->sz = PGSIZE;
    80002c7a:	fe843783          	ld	a5,-24(s0)
    80002c7e:	6705                	lui	a4,0x1
    80002c80:	e7b8                	sd	a4,72(a5)

  // prepare for the very first "return" from kernel to user.
  p->trapframe->epc = 0;      // user program counter
    80002c82:	fe843783          	ld	a5,-24(s0)
    80002c86:	6fbc                	ld	a5,88(a5)
    80002c88:	0007bc23          	sd	zero,24(a5)
  p->trapframe->sp = PGSIZE;  // user stack pointer
    80002c8c:	fe843783          	ld	a5,-24(s0)
    80002c90:	6fbc                	ld	a5,88(a5)
    80002c92:	6705                	lui	a4,0x1
    80002c94:	fb98                	sd	a4,48(a5)

  safestrcpy(p->name, "initcode", sizeof(p->name));
    80002c96:	fe843783          	ld	a5,-24(s0)
    80002c9a:	15878793          	addi	a5,a5,344
    80002c9e:	4641                	li	a2,16
    80002ca0:	00008597          	auipc	a1,0x8
    80002ca4:	54858593          	addi	a1,a1,1352 # 8000b1e8 <etext+0x1e8>
    80002ca8:	853e                	mv	a0,a5
    80002caa:	fffff097          	auipc	ra,0xfffff
    80002cae:	b06080e7          	jalr	-1274(ra) # 800017b0 <safestrcpy>
  p->cwd = namei("/");
    80002cb2:	00008517          	auipc	a0,0x8
    80002cb6:	54650513          	addi	a0,a0,1350 # 8000b1f8 <etext+0x1f8>
    80002cba:	00003097          	auipc	ra,0x3
    80002cbe:	114080e7          	jalr	276(ra) # 80005dce <namei>
    80002cc2:	872a                	mv	a4,a0
    80002cc4:	fe843783          	ld	a5,-24(s0)
    80002cc8:	14e7b823          	sd	a4,336(a5)

  p->state = RUNNABLE;
    80002ccc:	fe843783          	ld	a5,-24(s0)
    80002cd0:	470d                	li	a4,3
    80002cd2:	cf98                	sw	a4,24(a5)

  release(&p->lock);
    80002cd4:	fe843783          	ld	a5,-24(s0)
    80002cd8:	853e                	mv	a0,a5
    80002cda:	ffffe097          	auipc	ra,0xffffe
    80002cde:	64e080e7          	jalr	1614(ra) # 80001328 <release>
}
    80002ce2:	0001                	nop
    80002ce4:	60e2                	ld	ra,24(sp)
    80002ce6:	6442                	ld	s0,16(sp)
    80002ce8:	6105                	addi	sp,sp,32
    80002cea:	8082                	ret

0000000080002cec <growproc>:

// Grow or shrink user memory by n bytes.
// Return 0 on success, -1 on failure.
int
growproc(int n)
{
    80002cec:	7179                	addi	sp,sp,-48
    80002cee:	f406                	sd	ra,40(sp)
    80002cf0:	f022                	sd	s0,32(sp)
    80002cf2:	1800                	addi	s0,sp,48
    80002cf4:	87aa                	mv	a5,a0
    80002cf6:	fcf42e23          	sw	a5,-36(s0)
  uint64 sz;
  struct proc *p = myproc();
    80002cfa:	00000097          	auipc	ra,0x0
    80002cfe:	bc2080e7          	jalr	-1086(ra) # 800028bc <myproc>
    80002d02:	fea43023          	sd	a0,-32(s0)

  sz = p->sz;
    80002d06:	fe043783          	ld	a5,-32(s0)
    80002d0a:	67bc                	ld	a5,72(a5)
    80002d0c:	fef43423          	sd	a5,-24(s0)
  if(n > 0){
    80002d10:	fdc42783          	lw	a5,-36(s0)
    80002d14:	2781                	sext.w	a5,a5
    80002d16:	02f05963          	blez	a5,80002d48 <growproc+0x5c>
    if((sz = uvmalloc(p->pagetable, sz, sz + n, PTE_W)) == 0) {
    80002d1a:	fe043783          	ld	a5,-32(s0)
    80002d1e:	6ba8                	ld	a0,80(a5)
    80002d20:	fdc42703          	lw	a4,-36(s0)
    80002d24:	fe843783          	ld	a5,-24(s0)
    80002d28:	97ba                	add	a5,a5,a4
    80002d2a:	4691                	li	a3,4
    80002d2c:	863e                	mv	a2,a5
    80002d2e:	fe843583          	ld	a1,-24(s0)
    80002d32:	fffff097          	auipc	ra,0xfffff
    80002d36:	25c080e7          	jalr	604(ra) # 80001f8e <uvmalloc>
    80002d3a:	fea43423          	sd	a0,-24(s0)
    80002d3e:	fe843783          	ld	a5,-24(s0)
    80002d42:	eb95                	bnez	a5,80002d76 <growproc+0x8a>
      return -1;
    80002d44:	57fd                	li	a5,-1
    80002d46:	a835                	j	80002d82 <growproc+0x96>
    }
  } else if(n < 0){
    80002d48:	fdc42783          	lw	a5,-36(s0)
    80002d4c:	2781                	sext.w	a5,a5
    80002d4e:	0207d463          	bgez	a5,80002d76 <growproc+0x8a>
    sz = uvmdealloc(p->pagetable, sz, sz + n);
    80002d52:	fe043783          	ld	a5,-32(s0)
    80002d56:	6bb4                	ld	a3,80(a5)
    80002d58:	fdc42703          	lw	a4,-36(s0)
    80002d5c:	fe843783          	ld	a5,-24(s0)
    80002d60:	97ba                	add	a5,a5,a4
    80002d62:	863e                	mv	a2,a5
    80002d64:	fe843583          	ld	a1,-24(s0)
    80002d68:	8536                	mv	a0,a3
    80002d6a:	fffff097          	auipc	ra,0xfffff
    80002d6e:	316080e7          	jalr	790(ra) # 80002080 <uvmdealloc>
    80002d72:	fea43423          	sd	a0,-24(s0)
  }
  p->sz = sz;
    80002d76:	fe043783          	ld	a5,-32(s0)
    80002d7a:	fe843703          	ld	a4,-24(s0)
    80002d7e:	e7b8                	sd	a4,72(a5)
  return 0;
    80002d80:	4781                	li	a5,0
}
    80002d82:	853e                	mv	a0,a5
    80002d84:	70a2                	ld	ra,40(sp)
    80002d86:	7402                	ld	s0,32(sp)
    80002d88:	6145                	addi	sp,sp,48
    80002d8a:	8082                	ret

0000000080002d8c <fork>:

// Create a new process, copying the parent.
// Sets up child kernel stack to return as if from fork() system call.
int
fork(void)
{
    80002d8c:	7179                	addi	sp,sp,-48
    80002d8e:	f406                	sd	ra,40(sp)
    80002d90:	f022                	sd	s0,32(sp)
    80002d92:	1800                	addi	s0,sp,48
  int i, pid;
  struct proc *np;
  struct proc *p = myproc();
    80002d94:	00000097          	auipc	ra,0x0
    80002d98:	b28080e7          	jalr	-1240(ra) # 800028bc <myproc>
    80002d9c:	fea43023          	sd	a0,-32(s0)

  // Allocate process.
  if((np = allocproc()) == 0){
    80002da0:	00000097          	auipc	ra,0x0
    80002da4:	bb6080e7          	jalr	-1098(ra) # 80002956 <allocproc>
    80002da8:	fca43c23          	sd	a0,-40(s0)
    80002dac:	fd843783          	ld	a5,-40(s0)
    80002db0:	e399                	bnez	a5,80002db6 <fork+0x2a>
    return -1;
    80002db2:	57fd                	li	a5,-1
    80002db4:	aab5                	j	80002f30 <fork+0x1a4>
  }

  // Copy user memory from parent to child.
  if(uvmcopy(p->pagetable, np->pagetable, p->sz) < 0){
    80002db6:	fe043783          	ld	a5,-32(s0)
    80002dba:	6bb8                	ld	a4,80(a5)
    80002dbc:	fd843783          	ld	a5,-40(s0)
    80002dc0:	6bb4                	ld	a3,80(a5)
    80002dc2:	fe043783          	ld	a5,-32(s0)
    80002dc6:	67bc                	ld	a5,72(a5)
    80002dc8:	863e                	mv	a2,a5
    80002dca:	85b6                	mv	a1,a3
    80002dcc:	853a                	mv	a0,a4
    80002dce:	fffff097          	auipc	ra,0xfffff
    80002dd2:	442080e7          	jalr	1090(ra) # 80002210 <uvmcopy>
    80002dd6:	87aa                	mv	a5,a0
    80002dd8:	0207d163          	bgez	a5,80002dfa <fork+0x6e>
    freeproc(np);
    80002ddc:	fd843503          	ld	a0,-40(s0)
    80002de0:	00000097          	auipc	ra,0x0
    80002de4:	ca0080e7          	jalr	-864(ra) # 80002a80 <freeproc>
    release(&np->lock);
    80002de8:	fd843783          	ld	a5,-40(s0)
    80002dec:	853e                	mv	a0,a5
    80002dee:	ffffe097          	auipc	ra,0xffffe
    80002df2:	53a080e7          	jalr	1338(ra) # 80001328 <release>
    return -1;
    80002df6:	57fd                	li	a5,-1
    80002df8:	aa25                	j	80002f30 <fork+0x1a4>
  }
  np->sz = p->sz;
    80002dfa:	fe043783          	ld	a5,-32(s0)
    80002dfe:	67b8                	ld	a4,72(a5)
    80002e00:	fd843783          	ld	a5,-40(s0)
    80002e04:	e7b8                	sd	a4,72(a5)

  // copy saved user registers.
  *(np->trapframe) = *(p->trapframe);
    80002e06:	fe043783          	ld	a5,-32(s0)
    80002e0a:	6fb8                	ld	a4,88(a5)
    80002e0c:	fd843783          	ld	a5,-40(s0)
    80002e10:	6fbc                	ld	a5,88(a5)
    80002e12:	86be                	mv	a3,a5
    80002e14:	12000793          	li	a5,288
    80002e18:	863e                	mv	a2,a5
    80002e1a:	85ba                	mv	a1,a4
    80002e1c:	8536                	mv	a0,a3
    80002e1e:	fffff097          	auipc	ra,0xfffff
    80002e22:	846080e7          	jalr	-1978(ra) # 80001664 <memcpy>

  // Cause fork to return 0 in the child.
  np->trapframe->a0 = 0;
    80002e26:	fd843783          	ld	a5,-40(s0)
    80002e2a:	6fbc                	ld	a5,88(a5)
    80002e2c:	0607b823          	sd	zero,112(a5)

  // increment reference counts on open file descriptors.
  for(i = 0; i < NOFILE; i++)
    80002e30:	fe042623          	sw	zero,-20(s0)
    80002e34:	a0a9                	j	80002e7e <fork+0xf2>
    if(p->ofile[i])
    80002e36:	fe043703          	ld	a4,-32(s0)
    80002e3a:	fec42783          	lw	a5,-20(s0)
    80002e3e:	07e9                	addi	a5,a5,26
    80002e40:	078e                	slli	a5,a5,0x3
    80002e42:	97ba                	add	a5,a5,a4
    80002e44:	639c                	ld	a5,0(a5)
    80002e46:	c79d                	beqz	a5,80002e74 <fork+0xe8>
      np->ofile[i] = filedup(p->ofile[i]);
    80002e48:	fe043703          	ld	a4,-32(s0)
    80002e4c:	fec42783          	lw	a5,-20(s0)
    80002e50:	07e9                	addi	a5,a5,26
    80002e52:	078e                	slli	a5,a5,0x3
    80002e54:	97ba                	add	a5,a5,a4
    80002e56:	639c                	ld	a5,0(a5)
    80002e58:	853e                	mv	a0,a5
    80002e5a:	00004097          	auipc	ra,0x4
    80002e5e:	8e8080e7          	jalr	-1816(ra) # 80006742 <filedup>
    80002e62:	86aa                	mv	a3,a0
    80002e64:	fd843703          	ld	a4,-40(s0)
    80002e68:	fec42783          	lw	a5,-20(s0)
    80002e6c:	07e9                	addi	a5,a5,26
    80002e6e:	078e                	slli	a5,a5,0x3
    80002e70:	97ba                	add	a5,a5,a4
    80002e72:	e394                	sd	a3,0(a5)
  for(i = 0; i < NOFILE; i++)
    80002e74:	fec42783          	lw	a5,-20(s0)
    80002e78:	2785                	addiw	a5,a5,1
    80002e7a:	fef42623          	sw	a5,-20(s0)
    80002e7e:	fec42783          	lw	a5,-20(s0)
    80002e82:	0007871b          	sext.w	a4,a5
    80002e86:	47bd                	li	a5,15
    80002e88:	fae7d7e3          	bge	a5,a4,80002e36 <fork+0xaa>
  np->cwd = idup(p->cwd);
    80002e8c:	fe043783          	ld	a5,-32(s0)
    80002e90:	1507b783          	ld	a5,336(a5)
    80002e94:	853e                	mv	a0,a5
    80002e96:	00002097          	auipc	ra,0x2
    80002e9a:	1cc080e7          	jalr	460(ra) # 80005062 <idup>
    80002e9e:	872a                	mv	a4,a0
    80002ea0:	fd843783          	ld	a5,-40(s0)
    80002ea4:	14e7b823          	sd	a4,336(a5)

  safestrcpy(np->name, p->name, sizeof(p->name));
    80002ea8:	fd843783          	ld	a5,-40(s0)
    80002eac:	15878713          	addi	a4,a5,344
    80002eb0:	fe043783          	ld	a5,-32(s0)
    80002eb4:	15878793          	addi	a5,a5,344
    80002eb8:	4641                	li	a2,16
    80002eba:	85be                	mv	a1,a5
    80002ebc:	853a                	mv	a0,a4
    80002ebe:	fffff097          	auipc	ra,0xfffff
    80002ec2:	8f2080e7          	jalr	-1806(ra) # 800017b0 <safestrcpy>

  pid = np->pid;
    80002ec6:	fd843783          	ld	a5,-40(s0)
    80002eca:	5b9c                	lw	a5,48(a5)
    80002ecc:	fcf42a23          	sw	a5,-44(s0)

  release(&np->lock);
    80002ed0:	fd843783          	ld	a5,-40(s0)
    80002ed4:	853e                	mv	a0,a5
    80002ed6:	ffffe097          	auipc	ra,0xffffe
    80002eda:	452080e7          	jalr	1106(ra) # 80001328 <release>

  acquire(&wait_lock);
    80002ede:	00017517          	auipc	a0,0x17
    80002ee2:	a7250513          	addi	a0,a0,-1422 # 80019950 <wait_lock>
    80002ee6:	ffffe097          	auipc	ra,0xffffe
    80002eea:	3de080e7          	jalr	990(ra) # 800012c4 <acquire>
  np->parent = p;
    80002eee:	fd843783          	ld	a5,-40(s0)
    80002ef2:	fe043703          	ld	a4,-32(s0)
    80002ef6:	ff98                	sd	a4,56(a5)
  release(&wait_lock);
    80002ef8:	00017517          	auipc	a0,0x17
    80002efc:	a5850513          	addi	a0,a0,-1448 # 80019950 <wait_lock>
    80002f00:	ffffe097          	auipc	ra,0xffffe
    80002f04:	428080e7          	jalr	1064(ra) # 80001328 <release>

  acquire(&np->lock);
    80002f08:	fd843783          	ld	a5,-40(s0)
    80002f0c:	853e                	mv	a0,a5
    80002f0e:	ffffe097          	auipc	ra,0xffffe
    80002f12:	3b6080e7          	jalr	950(ra) # 800012c4 <acquire>
  np->state = RUNNABLE;
    80002f16:	fd843783          	ld	a5,-40(s0)
    80002f1a:	470d                	li	a4,3
    80002f1c:	cf98                	sw	a4,24(a5)
  release(&np->lock);
    80002f1e:	fd843783          	ld	a5,-40(s0)
    80002f22:	853e                	mv	a0,a5
    80002f24:	ffffe097          	auipc	ra,0xffffe
    80002f28:	404080e7          	jalr	1028(ra) # 80001328 <release>

  return pid;
    80002f2c:	fd442783          	lw	a5,-44(s0)
}
    80002f30:	853e                	mv	a0,a5
    80002f32:	70a2                	ld	ra,40(sp)
    80002f34:	7402                	ld	s0,32(sp)
    80002f36:	6145                	addi	sp,sp,48
    80002f38:	8082                	ret

0000000080002f3a <reparent>:

// Pass p's abandoned children to init.
// Caller must hold wait_lock.
void
reparent(struct proc *p)
{
    80002f3a:	7179                	addi	sp,sp,-48
    80002f3c:	f406                	sd	ra,40(sp)
    80002f3e:	f022                	sd	s0,32(sp)
    80002f40:	1800                	addi	s0,sp,48
    80002f42:	fca43c23          	sd	a0,-40(s0)
  struct proc *pp;

  for(pp = proc; pp < &proc[NPROC]; pp++){
    80002f46:	00011797          	auipc	a5,0x11
    80002f4a:	ff278793          	addi	a5,a5,-14 # 80013f38 <proc>
    80002f4e:	fef43423          	sd	a5,-24(s0)
    80002f52:	a081                	j	80002f92 <reparent+0x58>
    if(pp->parent == p){
    80002f54:	fe843783          	ld	a5,-24(s0)
    80002f58:	7f9c                	ld	a5,56(a5)
    80002f5a:	fd843703          	ld	a4,-40(s0)
    80002f5e:	02f71463          	bne	a4,a5,80002f86 <reparent+0x4c>
      pp->parent = initproc;
    80002f62:	00009797          	auipc	a5,0x9
    80002f66:	95e78793          	addi	a5,a5,-1698 # 8000b8c0 <initproc>
    80002f6a:	6398                	ld	a4,0(a5)
    80002f6c:	fe843783          	ld	a5,-24(s0)
    80002f70:	ff98                	sd	a4,56(a5)
      wakeup(initproc);
    80002f72:	00009797          	auipc	a5,0x9
    80002f76:	94e78793          	addi	a5,a5,-1714 # 8000b8c0 <initproc>
    80002f7a:	639c                	ld	a5,0(a5)
    80002f7c:	853e                	mv	a0,a5
    80002f7e:	00000097          	auipc	ra,0x0
    80002f82:	574080e7          	jalr	1396(ra) # 800034f2 <wakeup>
  for(pp = proc; pp < &proc[NPROC]; pp++){
    80002f86:	fe843783          	ld	a5,-24(s0)
    80002f8a:	16878793          	addi	a5,a5,360
    80002f8e:	fef43423          	sd	a5,-24(s0)
    80002f92:	fe843703          	ld	a4,-24(s0)
    80002f96:	00017797          	auipc	a5,0x17
    80002f9a:	9a278793          	addi	a5,a5,-1630 # 80019938 <pid_lock>
    80002f9e:	faf76be3          	bltu	a4,a5,80002f54 <reparent+0x1a>
    }
  }
}
    80002fa2:	0001                	nop
    80002fa4:	0001                	nop
    80002fa6:	70a2                	ld	ra,40(sp)
    80002fa8:	7402                	ld	s0,32(sp)
    80002faa:	6145                	addi	sp,sp,48
    80002fac:	8082                	ret

0000000080002fae <exit>:
// Exit the current process.  Does not return.
// An exited process remains in the zombie state
// until its parent calls wait().
void
exit(int status)
{
    80002fae:	7139                	addi	sp,sp,-64
    80002fb0:	fc06                	sd	ra,56(sp)
    80002fb2:	f822                	sd	s0,48(sp)
    80002fb4:	0080                	addi	s0,sp,64
    80002fb6:	87aa                	mv	a5,a0
    80002fb8:	fcf42623          	sw	a5,-52(s0)
  struct proc *p = myproc();
    80002fbc:	00000097          	auipc	ra,0x0
    80002fc0:	900080e7          	jalr	-1792(ra) # 800028bc <myproc>
    80002fc4:	fea43023          	sd	a0,-32(s0)

  if(p == initproc)
    80002fc8:	00009797          	auipc	a5,0x9
    80002fcc:	8f878793          	addi	a5,a5,-1800 # 8000b8c0 <initproc>
    80002fd0:	639c                	ld	a5,0(a5)
    80002fd2:	fe043703          	ld	a4,-32(s0)
    80002fd6:	00f71a63          	bne	a4,a5,80002fea <exit+0x3c>
    panic("init exiting");
    80002fda:	00008517          	auipc	a0,0x8
    80002fde:	22650513          	addi	a0,a0,550 # 8000b200 <etext+0x200>
    80002fe2:	ffffe097          	auipc	ra,0xffffe
    80002fe6:	cde080e7          	jalr	-802(ra) # 80000cc0 <panic>

  // Close all open files.
  for(int fd = 0; fd < NOFILE; fd++){
    80002fea:	fe042623          	sw	zero,-20(s0)
    80002fee:	a881                	j	8000303e <exit+0x90>
    if(p->ofile[fd]){
    80002ff0:	fe043703          	ld	a4,-32(s0)
    80002ff4:	fec42783          	lw	a5,-20(s0)
    80002ff8:	07e9                	addi	a5,a5,26
    80002ffa:	078e                	slli	a5,a5,0x3
    80002ffc:	97ba                	add	a5,a5,a4
    80002ffe:	639c                	ld	a5,0(a5)
    80003000:	cb95                	beqz	a5,80003034 <exit+0x86>
      struct file *f = p->ofile[fd];
    80003002:	fe043703          	ld	a4,-32(s0)
    80003006:	fec42783          	lw	a5,-20(s0)
    8000300a:	07e9                	addi	a5,a5,26
    8000300c:	078e                	slli	a5,a5,0x3
    8000300e:	97ba                	add	a5,a5,a4
    80003010:	639c                	ld	a5,0(a5)
    80003012:	fcf43c23          	sd	a5,-40(s0)
      fileclose(f);
    80003016:	fd843503          	ld	a0,-40(s0)
    8000301a:	00003097          	auipc	ra,0x3
    8000301e:	78e080e7          	jalr	1934(ra) # 800067a8 <fileclose>
      p->ofile[fd] = 0;
    80003022:	fe043703          	ld	a4,-32(s0)
    80003026:	fec42783          	lw	a5,-20(s0)
    8000302a:	07e9                	addi	a5,a5,26
    8000302c:	078e                	slli	a5,a5,0x3
    8000302e:	97ba                	add	a5,a5,a4
    80003030:	0007b023          	sd	zero,0(a5)
  for(int fd = 0; fd < NOFILE; fd++){
    80003034:	fec42783          	lw	a5,-20(s0)
    80003038:	2785                	addiw	a5,a5,1
    8000303a:	fef42623          	sw	a5,-20(s0)
    8000303e:	fec42783          	lw	a5,-20(s0)
    80003042:	0007871b          	sext.w	a4,a5
    80003046:	47bd                	li	a5,15
    80003048:	fae7d4e3          	bge	a5,a4,80002ff0 <exit+0x42>
    }
  }

  begin_op();
    8000304c:	00003097          	auipc	ra,0x3
    80003050:	0d2080e7          	jalr	210(ra) # 8000611e <begin_op>
  iput(p->cwd);
    80003054:	fe043783          	ld	a5,-32(s0)
    80003058:	1507b783          	ld	a5,336(a5)
    8000305c:	853e                	mv	a0,a5
    8000305e:	00002097          	auipc	ra,0x2
    80003062:	1de080e7          	jalr	478(ra) # 8000523c <iput>
  end_op();
    80003066:	00003097          	auipc	ra,0x3
    8000306a:	17a080e7          	jalr	378(ra) # 800061e0 <end_op>
  p->cwd = 0;
    8000306e:	fe043783          	ld	a5,-32(s0)
    80003072:	1407b823          	sd	zero,336(a5)

  acquire(&wait_lock);
    80003076:	00017517          	auipc	a0,0x17
    8000307a:	8da50513          	addi	a0,a0,-1830 # 80019950 <wait_lock>
    8000307e:	ffffe097          	auipc	ra,0xffffe
    80003082:	246080e7          	jalr	582(ra) # 800012c4 <acquire>

  // Give any children to init.
  reparent(p);
    80003086:	fe043503          	ld	a0,-32(s0)
    8000308a:	00000097          	auipc	ra,0x0
    8000308e:	eb0080e7          	jalr	-336(ra) # 80002f3a <reparent>

  // Parent might be sleeping in wait().
  wakeup(p->parent);
    80003092:	fe043783          	ld	a5,-32(s0)
    80003096:	7f9c                	ld	a5,56(a5)
    80003098:	853e                	mv	a0,a5
    8000309a:	00000097          	auipc	ra,0x0
    8000309e:	458080e7          	jalr	1112(ra) # 800034f2 <wakeup>
  
  acquire(&p->lock);
    800030a2:	fe043783          	ld	a5,-32(s0)
    800030a6:	853e                	mv	a0,a5
    800030a8:	ffffe097          	auipc	ra,0xffffe
    800030ac:	21c080e7          	jalr	540(ra) # 800012c4 <acquire>

  p->xstate = status;
    800030b0:	fe043783          	ld	a5,-32(s0)
    800030b4:	fcc42703          	lw	a4,-52(s0)
    800030b8:	d7d8                	sw	a4,44(a5)
  p->state = ZOMBIE;
    800030ba:	fe043783          	ld	a5,-32(s0)
    800030be:	4715                	li	a4,5
    800030c0:	cf98                	sw	a4,24(a5)

  release(&wait_lock);
    800030c2:	00017517          	auipc	a0,0x17
    800030c6:	88e50513          	addi	a0,a0,-1906 # 80019950 <wait_lock>
    800030ca:	ffffe097          	auipc	ra,0xffffe
    800030ce:	25e080e7          	jalr	606(ra) # 80001328 <release>

  // Jump into the scheduler, never to return.
  sched();
    800030d2:	00000097          	auipc	ra,0x0
    800030d6:	22c080e7          	jalr	556(ra) # 800032fe <sched>
  panic("zombie exit");
    800030da:	00008517          	auipc	a0,0x8
    800030de:	13650513          	addi	a0,a0,310 # 8000b210 <etext+0x210>
    800030e2:	ffffe097          	auipc	ra,0xffffe
    800030e6:	bde080e7          	jalr	-1058(ra) # 80000cc0 <panic>

00000000800030ea <wait>:

// Wait for a child process to exit and return its pid.
// Return -1 if this process has no children.
int
wait(uint64 addr)
{
    800030ea:	7139                	addi	sp,sp,-64
    800030ec:	fc06                	sd	ra,56(sp)
    800030ee:	f822                	sd	s0,48(sp)
    800030f0:	0080                	addi	s0,sp,64
    800030f2:	fca43423          	sd	a0,-56(s0)
  struct proc *pp;
  int havekids, pid;
  struct proc *p = myproc();
    800030f6:	fffff097          	auipc	ra,0xfffff
    800030fa:	7c6080e7          	jalr	1990(ra) # 800028bc <myproc>
    800030fe:	fca43c23          	sd	a0,-40(s0)

  acquire(&wait_lock);
    80003102:	00017517          	auipc	a0,0x17
    80003106:	84e50513          	addi	a0,a0,-1970 # 80019950 <wait_lock>
    8000310a:	ffffe097          	auipc	ra,0xffffe
    8000310e:	1ba080e7          	jalr	442(ra) # 800012c4 <acquire>

  for(;;){
    // Scan through table looking for exited children.
    havekids = 0;
    80003112:	fe042223          	sw	zero,-28(s0)
    for(pp = proc; pp < &proc[NPROC]; pp++){
    80003116:	00011797          	auipc	a5,0x11
    8000311a:	e2278793          	addi	a5,a5,-478 # 80013f38 <proc>
    8000311e:	fef43423          	sd	a5,-24(s0)
    80003122:	a8c9                	j	800031f4 <wait+0x10a>
      if(pp->parent == p){
    80003124:	fe843783          	ld	a5,-24(s0)
    80003128:	7f9c                	ld	a5,56(a5)
    8000312a:	fd843703          	ld	a4,-40(s0)
    8000312e:	0af71d63          	bne	a4,a5,800031e8 <wait+0xfe>
        // make sure the child isn't still in exit() or swtch().
        acquire(&pp->lock);
    80003132:	fe843783          	ld	a5,-24(s0)
    80003136:	853e                	mv	a0,a5
    80003138:	ffffe097          	auipc	ra,0xffffe
    8000313c:	18c080e7          	jalr	396(ra) # 800012c4 <acquire>

        havekids = 1;
    80003140:	4785                	li	a5,1
    80003142:	fef42223          	sw	a5,-28(s0)
        if(pp->state == ZOMBIE){
    80003146:	fe843783          	ld	a5,-24(s0)
    8000314a:	4f98                	lw	a4,24(a5)
    8000314c:	4795                	li	a5,5
    8000314e:	08f71663          	bne	a4,a5,800031da <wait+0xf0>
          // Found one.
          pid = pp->pid;
    80003152:	fe843783          	ld	a5,-24(s0)
    80003156:	5b9c                	lw	a5,48(a5)
    80003158:	fcf42a23          	sw	a5,-44(s0)
          if(addr != 0 && copyout(p->pagetable, addr, (char *)&pp->xstate,
    8000315c:	fc843783          	ld	a5,-56(s0)
    80003160:	c7a9                	beqz	a5,800031aa <wait+0xc0>
    80003162:	fd843783          	ld	a5,-40(s0)
    80003166:	6bb8                	ld	a4,80(a5)
    80003168:	fe843783          	ld	a5,-24(s0)
    8000316c:	02c78793          	addi	a5,a5,44
    80003170:	4691                	li	a3,4
    80003172:	863e                	mv	a2,a5
    80003174:	fc843583          	ld	a1,-56(s0)
    80003178:	853a                	mv	a0,a4
    8000317a:	fffff097          	auipc	ra,0xfffff
    8000317e:	200080e7          	jalr	512(ra) # 8000237a <copyout>
    80003182:	87aa                	mv	a5,a0
    80003184:	0207d363          	bgez	a5,800031aa <wait+0xc0>
                                  sizeof(pp->xstate)) < 0) {
            release(&pp->lock);
    80003188:	fe843783          	ld	a5,-24(s0)
    8000318c:	853e                	mv	a0,a5
    8000318e:	ffffe097          	auipc	ra,0xffffe
    80003192:	19a080e7          	jalr	410(ra) # 80001328 <release>
            release(&wait_lock);
    80003196:	00016517          	auipc	a0,0x16
    8000319a:	7ba50513          	addi	a0,a0,1978 # 80019950 <wait_lock>
    8000319e:	ffffe097          	auipc	ra,0xffffe
    800031a2:	18a080e7          	jalr	394(ra) # 80001328 <release>
            return -1;
    800031a6:	57fd                	li	a5,-1
    800031a8:	a879                	j	80003246 <wait+0x15c>
          }
          freeproc(pp);
    800031aa:	fe843503          	ld	a0,-24(s0)
    800031ae:	00000097          	auipc	ra,0x0
    800031b2:	8d2080e7          	jalr	-1838(ra) # 80002a80 <freeproc>
          release(&pp->lock);
    800031b6:	fe843783          	ld	a5,-24(s0)
    800031ba:	853e                	mv	a0,a5
    800031bc:	ffffe097          	auipc	ra,0xffffe
    800031c0:	16c080e7          	jalr	364(ra) # 80001328 <release>
          release(&wait_lock);
    800031c4:	00016517          	auipc	a0,0x16
    800031c8:	78c50513          	addi	a0,a0,1932 # 80019950 <wait_lock>
    800031cc:	ffffe097          	auipc	ra,0xffffe
    800031d0:	15c080e7          	jalr	348(ra) # 80001328 <release>
          return pid;
    800031d4:	fd442783          	lw	a5,-44(s0)
    800031d8:	a0bd                	j	80003246 <wait+0x15c>
        }
        release(&pp->lock);
    800031da:	fe843783          	ld	a5,-24(s0)
    800031de:	853e                	mv	a0,a5
    800031e0:	ffffe097          	auipc	ra,0xffffe
    800031e4:	148080e7          	jalr	328(ra) # 80001328 <release>
    for(pp = proc; pp < &proc[NPROC]; pp++){
    800031e8:	fe843783          	ld	a5,-24(s0)
    800031ec:	16878793          	addi	a5,a5,360
    800031f0:	fef43423          	sd	a5,-24(s0)
    800031f4:	fe843703          	ld	a4,-24(s0)
    800031f8:	00016797          	auipc	a5,0x16
    800031fc:	74078793          	addi	a5,a5,1856 # 80019938 <pid_lock>
    80003200:	f2f762e3          	bltu	a4,a5,80003124 <wait+0x3a>
      }
    }

    // No point waiting if we don't have any children.
    if(!havekids || killed(p)){
    80003204:	fe442783          	lw	a5,-28(s0)
